
p4_2:     file format elf64-x86-64


Disassembly of section .init:

0000000000001000 <_init>:
    1000:	f3 0f 1e fa          	endbr64 
    1004:	48 83 ec 08          	sub    $0x8,%rsp
    1008:	48 8b 05 d9 2f 00 00 	mov    0x2fd9(%rip),%rax        # 3fe8 <__gmon_start__>
    100f:	48 85 c0             	test   %rax,%rax
    1012:	74 02                	je     1016 <_init+0x16>
    1014:	ff d0                	callq  *%rax
    1016:	48 83 c4 08          	add    $0x8,%rsp
    101a:	c3                   	retq   

Disassembly of section .plt:

0000000000001020 <.plt>:
    1020:	ff 35 72 2f 00 00    	pushq  0x2f72(%rip)        # 3f98 <_GLOBAL_OFFSET_TABLE_+0x8>
    1026:	f2 ff 25 73 2f 00 00 	bnd jmpq *0x2f73(%rip)        # 3fa0 <_GLOBAL_OFFSET_TABLE_+0x10>
    102d:	0f 1f 00             	nopl   (%rax)
    1030:	f3 0f 1e fa          	endbr64 
    1034:	68 00 00 00 00       	pushq  $0x0
    1039:	f2 e9 e1 ff ff ff    	bnd jmpq 1020 <.plt>
    103f:	90                   	nop
    1040:	f3 0f 1e fa          	endbr64 
    1044:	68 01 00 00 00       	pushq  $0x1
    1049:	f2 e9 d1 ff ff ff    	bnd jmpq 1020 <.plt>
    104f:	90                   	nop
    1050:	f3 0f 1e fa          	endbr64 
    1054:	68 02 00 00 00       	pushq  $0x2
    1059:	f2 e9 c1 ff ff ff    	bnd jmpq 1020 <.plt>
    105f:	90                   	nop
    1060:	f3 0f 1e fa          	endbr64 
    1064:	68 03 00 00 00       	pushq  $0x3
    1069:	f2 e9 b1 ff ff ff    	bnd jmpq 1020 <.plt>
    106f:	90                   	nop
    1070:	f3 0f 1e fa          	endbr64 
    1074:	68 04 00 00 00       	pushq  $0x4
    1079:	f2 e9 a1 ff ff ff    	bnd jmpq 1020 <.plt>
    107f:	90                   	nop
    1080:	f3 0f 1e fa          	endbr64 
    1084:	68 05 00 00 00       	pushq  $0x5
    1089:	f2 e9 91 ff ff ff    	bnd jmpq 1020 <.plt>
    108f:	90                   	nop

Disassembly of section .plt.got:

0000000000001090 <__cxa_finalize@plt>:
    1090:	f3 0f 1e fa          	endbr64 
    1094:	f2 ff 25 5d 2f 00 00 	bnd jmpq *0x2f5d(%rip)        # 3ff8 <__cxa_finalize@GLIBC_2.2.5>
    109b:	0f 1f 44 00 00       	nopl   0x0(%rax,%rax,1)

Disassembly of section .plt.sec:

00000000000010a0 <srand@plt>:
    10a0:	f3 0f 1e fa          	endbr64 
    10a4:	f2 ff 25 fd 2e 00 00 	bnd jmpq *0x2efd(%rip)        # 3fa8 <srand@GLIBC_2.2.5>
    10ab:	0f 1f 44 00 00       	nopl   0x0(%rax,%rax,1)

00000000000010b0 <strtol@plt>:
    10b0:	f3 0f 1e fa          	endbr64 
    10b4:	f2 ff 25 f5 2e 00 00 	bnd jmpq *0x2ef5(%rip)        # 3fb0 <strtol@GLIBC_2.2.5>
    10bb:	0f 1f 44 00 00       	nopl   0x0(%rax,%rax,1)

00000000000010c0 <time@plt>:
    10c0:	f3 0f 1e fa          	endbr64 
    10c4:	f2 ff 25 ed 2e 00 00 	bnd jmpq *0x2eed(%rip)        # 3fb8 <time@GLIBC_2.2.5>
    10cb:	0f 1f 44 00 00       	nopl   0x0(%rax,%rax,1)

00000000000010d0 <malloc@plt>:
    10d0:	f3 0f 1e fa          	endbr64 
    10d4:	f2 ff 25 e5 2e 00 00 	bnd jmpq *0x2ee5(%rip)        # 3fc0 <malloc@GLIBC_2.2.5>
    10db:	0f 1f 44 00 00       	nopl   0x0(%rax,%rax,1)

00000000000010e0 <__printf_chk@plt>:
    10e0:	f3 0f 1e fa          	endbr64 
    10e4:	f2 ff 25 dd 2e 00 00 	bnd jmpq *0x2edd(%rip)        # 3fc8 <__printf_chk@GLIBC_2.3.4>
    10eb:	0f 1f 44 00 00       	nopl   0x0(%rax,%rax,1)

00000000000010f0 <rand@plt>:
    10f0:	f3 0f 1e fa          	endbr64 
    10f4:	f2 ff 25 d5 2e 00 00 	bnd jmpq *0x2ed5(%rip)        # 3fd0 <rand@GLIBC_2.2.5>
    10fb:	0f 1f 44 00 00       	nopl   0x0(%rax,%rax,1)

Disassembly of section .text:

0000000000001100 <main>:
    1100:	f3 0f 1e fa          	endbr64 
    1104:	41 55                	push   %r13
    1106:	31 ff                	xor    %edi,%edi
    1108:	41 54                	push   %r12
    110a:	55                   	push   %rbp
    110b:	53                   	push   %rbx
    110c:	48 89 f3             	mov    %rsi,%rbx
    110f:	48 83 ec 08          	sub    $0x8,%rsp
    1113:	e8 a8 ff ff ff       	callq  10c0 <time@plt>
    1118:	48 89 c7             	mov    %rax,%rdi
    111b:	e8 80 ff ff ff       	callq  10a0 <srand@plt>
    1120:	48 8b 7b 08          	mov    0x8(%rbx),%rdi
    1124:	ba 0a 00 00 00       	mov    $0xa,%edx
    1129:	31 f6                	xor    %esi,%esi
    112b:	e8 80 ff ff ff       	callq  10b0 <strtol@plt>
    1130:	48 63 e8             	movslq %eax,%rbp
    1133:	48 89 c3             	mov    %rax,%rbx
    1136:	48 c1 e5 03          	shl    $0x3,%rbp
    113a:	48 89 ef             	mov    %rbp,%rdi
    113d:	e8 8e ff ff ff       	callq  10d0 <malloc@plt>
    1142:	48 89 ef             	mov    %rbp,%rdi
    1145:	49 89 c4             	mov    %rax,%r12
    1148:	e8 83 ff ff ff       	callq  10d0 <malloc@plt>
    114d:	48 89 ef             	mov    %rbp,%rdi
    1150:	49 89 c5             	mov    %rax,%r13
    1153:	e8 78 ff ff ff       	callq  10d0 <malloc@plt>
    1158:	89 d9                	mov    %ebx,%ecx
    115a:	4c 89 ee             	mov    %r13,%rsi
    115d:	4c 89 e7             	mov    %r12,%rdi
    1160:	48 89 c2             	mov    %rax,%rdx
    1163:	e8 78 02 00 00       	callq  13e0 <ttime>
    1168:	bf 01 00 00 00       	mov    $0x1,%edi
    116d:	b8 01 00 00 00       	mov    $0x1,%eax
    1172:	48 8d 35 8b 0e 00 00 	lea    0xe8b(%rip),%rsi        # 2004 <_IO_stdin_used+0x4>
    1179:	e8 62 ff ff ff       	callq  10e0 <__printf_chk@plt>
    117e:	48 83 c4 08          	add    $0x8,%rsp
    1182:	31 c0                	xor    %eax,%eax
    1184:	5b                   	pop    %rbx
    1185:	5d                   	pop    %rbp
    1186:	41 5c                	pop    %r12
    1188:	41 5d                	pop    %r13
    118a:	c3                   	retq   
    118b:	0f 1f 44 00 00       	nopl   0x0(%rax,%rax,1)

0000000000001190 <_start>:
    1190:	f3 0f 1e fa          	endbr64 
    1194:	31 ed                	xor    %ebp,%ebp
    1196:	49 89 d1             	mov    %rdx,%r9
    1199:	5e                   	pop    %rsi
    119a:	48 89 e2             	mov    %rsp,%rdx
    119d:	48 83 e4 f0          	and    $0xfffffffffffffff0,%rsp
    11a1:	50                   	push   %rax
    11a2:	54                   	push   %rsp
    11a3:	4c 8d 05 86 05 00 00 	lea    0x586(%rip),%r8        # 1730 <__libc_csu_fini>
    11aa:	48 8d 0d 0f 05 00 00 	lea    0x50f(%rip),%rcx        # 16c0 <__libc_csu_init>
    11b1:	48 8d 3d 48 ff ff ff 	lea    -0xb8(%rip),%rdi        # 1100 <main>
    11b8:	ff 15 22 2e 00 00    	callq  *0x2e22(%rip)        # 3fe0 <__libc_start_main@GLIBC_2.2.5>
    11be:	f4                   	hlt    
    11bf:	90                   	nop

00000000000011c0 <deregister_tm_clones>:
    11c0:	48 8d 3d 49 2e 00 00 	lea    0x2e49(%rip),%rdi        # 4010 <__TMC_END__>
    11c7:	48 8d 05 42 2e 00 00 	lea    0x2e42(%rip),%rax        # 4010 <__TMC_END__>
    11ce:	48 39 f8             	cmp    %rdi,%rax
    11d1:	74 15                	je     11e8 <deregister_tm_clones+0x28>
    11d3:	48 8b 05 fe 2d 00 00 	mov    0x2dfe(%rip),%rax        # 3fd8 <_ITM_deregisterTMCloneTable>
    11da:	48 85 c0             	test   %rax,%rax
    11dd:	74 09                	je     11e8 <deregister_tm_clones+0x28>
    11df:	ff e0                	jmpq   *%rax
    11e1:	0f 1f 80 00 00 00 00 	nopl   0x0(%rax)
    11e8:	c3                   	retq   
    11e9:	0f 1f 80 00 00 00 00 	nopl   0x0(%rax)

00000000000011f0 <register_tm_clones>:
    11f0:	48 8d 3d 19 2e 00 00 	lea    0x2e19(%rip),%rdi        # 4010 <__TMC_END__>
    11f7:	48 8d 35 12 2e 00 00 	lea    0x2e12(%rip),%rsi        # 4010 <__TMC_END__>
    11fe:	48 29 fe             	sub    %rdi,%rsi
    1201:	48 89 f0             	mov    %rsi,%rax
    1204:	48 c1 ee 3f          	shr    $0x3f,%rsi
    1208:	48 c1 f8 03          	sar    $0x3,%rax
    120c:	48 01 c6             	add    %rax,%rsi
    120f:	48 d1 fe             	sar    %rsi
    1212:	74 14                	je     1228 <register_tm_clones+0x38>
    1214:	48 8b 05 d5 2d 00 00 	mov    0x2dd5(%rip),%rax        # 3ff0 <_ITM_registerTMCloneTable>
    121b:	48 85 c0             	test   %rax,%rax
    121e:	74 08                	je     1228 <register_tm_clones+0x38>
    1220:	ff e0                	jmpq   *%rax
    1222:	66 0f 1f 44 00 00    	nopw   0x0(%rax,%rax,1)
    1228:	c3                   	retq   
    1229:	0f 1f 80 00 00 00 00 	nopl   0x0(%rax)

0000000000001230 <__do_global_dtors_aux>:
    1230:	f3 0f 1e fa          	endbr64 
    1234:	80 3d d5 2d 00 00 00 	cmpb   $0x0,0x2dd5(%rip)        # 4010 <__TMC_END__>
    123b:	75 2b                	jne    1268 <__do_global_dtors_aux+0x38>
    123d:	55                   	push   %rbp
    123e:	48 83 3d b2 2d 00 00 	cmpq   $0x0,0x2db2(%rip)        # 3ff8 <__cxa_finalize@GLIBC_2.2.5>
    1245:	00 
    1246:	48 89 e5             	mov    %rsp,%rbp
    1249:	74 0c                	je     1257 <__do_global_dtors_aux+0x27>
    124b:	48 8b 3d b6 2d 00 00 	mov    0x2db6(%rip),%rdi        # 4008 <__dso_handle>
    1252:	e8 39 fe ff ff       	callq  1090 <__cxa_finalize@plt>
    1257:	e8 64 ff ff ff       	callq  11c0 <deregister_tm_clones>
    125c:	c6 05 ad 2d 00 00 01 	movb   $0x1,0x2dad(%rip)        # 4010 <__TMC_END__>
    1263:	5d                   	pop    %rbp
    1264:	c3                   	retq   
    1265:	0f 1f 00             	nopl   (%rax)
    1268:	c3                   	retq   
    1269:	0f 1f 80 00 00 00 00 	nopl   0x0(%rax)

0000000000001270 <frame_dummy>:
    1270:	f3 0f 1e fa          	endbr64 
    1274:	e9 77 ff ff ff       	jmpq   11f0 <register_tm_clones>
    1279:	0f 1f 80 00 00 00 00 	nopl   0x0(%rax)

0000000000001280 <init_tsc>:
    1280:	f3 0f 1e fa          	endbr64 
    1284:	c3                   	retq   
    1285:	66 66 2e 0f 1f 84 00 	data16 nopw %cs:0x0(%rax,%rax,1)
    128c:	00 00 00 00 

0000000000001290 <start_tsc>:
    1290:	f3 0f 1e fa          	endbr64 
    1294:	53                   	push   %rbx
    1295:	31 c0                	xor    %eax,%eax
    1297:	0f a2                	cpuid  
    1299:	0f 31                	rdtsc  
    129b:	48 c1 e2 20          	shl    $0x20,%rdx
    129f:	89 c0                	mov    %eax,%eax
    12a1:	5b                   	pop    %rbx
    12a2:	48 09 d0             	or     %rdx,%rax
    12a5:	c3                   	retq   
    12a6:	66 2e 0f 1f 84 00 00 	nopw   %cs:0x0(%rax,%rax,1)
    12ad:	00 00 00 

00000000000012b0 <stop_tsc>:
    12b0:	f3 0f 1e fa          	endbr64 
    12b4:	53                   	push   %rbx
    12b5:	0f 31                	rdtsc  
    12b7:	48 c1 e2 20          	shl    $0x20,%rdx
    12bb:	89 c6                	mov    %eax,%esi
    12bd:	31 c0                	xor    %eax,%eax
    12bf:	48 09 d6             	or     %rdx,%rsi
    12c2:	0f a2                	cpuid  
    12c4:	48 89 f0             	mov    %rsi,%rax
    12c7:	5b                   	pop    %rbx
    12c8:	48 29 f8             	sub    %rdi,%rax
    12cb:	c3                   	retq   
    12cc:	0f 1f 40 00          	nopl   0x0(%rax)

00000000000012d0 <comp>:
    12d0:	f3 0f 1e fa          	endbr64 
    12d4:	85 c9                	test   %ecx,%ecx
    12d6:	0f 8e 87 00 00 00    	jle    1363 <comp+0x93>
    12dc:	83 e9 01             	sub    $0x1,%ecx
    12df:	c5 fb 10 32          	vmovsd (%rdx),%xmm6
    12e3:	c5 fb 10 6a 08       	vmovsd 0x8(%rdx),%xmm5
    12e8:	c1 e9 02             	shr    $0x2,%ecx
    12eb:	48 c1 e1 05          	shl    $0x5,%rcx
    12ef:	48 8d 44 0f 20       	lea    0x20(%rdi,%rcx,1),%rax
    12f4:	0f 1f 40 00          	nopl   0x0(%rax)
    12f8:	c5 fb 10 5f 08       	vmovsd 0x8(%rdi),%xmm3
    12fd:	c5 fb 10 27          	vmovsd (%rdi),%xmm4
    1301:	48 83 c7 20          	add    $0x20,%rdi
    1305:	48 83 c6 20          	add    $0x20,%rsi
    1309:	c5 fb 10 46 f0       	vmovsd -0x10(%rsi),%xmm0
    130e:	c5 7b 10 46 e8       	vmovsd -0x18(%rsi),%xmm8
    1313:	c5 fb 10 57 f0       	vmovsd -0x10(%rdi),%xmm2
    1318:	c5 fb 10 7e f8       	vmovsd -0x8(%rsi),%xmm7
    131d:	c5 63 59 d0          	vmulsd %xmm0,%xmm3,%xmm10
    1321:	c5 fb 10 4f f8       	vmovsd -0x8(%rdi),%xmm1
    1326:	c5 7b 10 0e          	vmovsd (%rsi),%xmm9
    132a:	c5 3b 59 da          	vmulsd %xmm2,%xmm8,%xmm11
    132e:	c4 e2 a1 99 5e e0    	vfmadd132sd -0x20(%rsi),%xmm11,%xmm3
    1334:	c4 c2 a9 99 e0       	vfmadd132sd %xmm8,%xmm10,%xmm4
    1339:	c4 e2 e1 99 c1       	vfmadd132sd %xmm1,%xmm3,%xmm0
    133e:	c4 e2 c1 b9 07       	vfmadd231sd (%rdi),%xmm7,%xmm0
    1343:	c4 e2 d9 99 d7       	vfmadd132sd %xmm7,%xmm4,%xmm2
    1348:	c5 cb 58 f0          	vaddsd %xmm0,%xmm6,%xmm6
    134c:	c4 c2 e9 99 c9       	vfmadd132sd %xmm9,%xmm2,%xmm1
    1351:	c5 fb 11 32          	vmovsd %xmm6,(%rdx)
    1355:	c5 d3 58 e9          	vaddsd %xmm1,%xmm5,%xmm5
    1359:	c5 fb 11 6a 08       	vmovsd %xmm5,0x8(%rdx)
    135e:	48 39 f8             	cmp    %rdi,%rax
    1361:	75 95                	jne    12f8 <comp+0x28>
    1363:	c3                   	retq   
    1364:	66 66 2e 0f 1f 84 00 	data16 nopw %cs:0x0(%rax,%rax,1)
    136b:	00 00 00 00 
    136f:	90                   	nop

0000000000001370 <fillvec>:
    1370:	f3 0f 1e fa          	endbr64 
    1374:	85 f6                	test   %esi,%esi
    1376:	7e 58                	jle    13d0 <fillvec+0x60>
    1378:	55                   	push   %rbp
    1379:	8d 46 ff             	lea    -0x1(%rsi),%eax
    137c:	48 89 fd             	mov    %rdi,%rbp
    137f:	53                   	push   %rbx
    1380:	48 8d 5c c7 08       	lea    0x8(%rdi,%rax,8),%rbx
    1385:	48 83 ec 08          	sub    $0x8,%rsp
    1389:	0f 1f 80 00 00 00 00 	nopl   0x0(%rax)
    1390:	e8 5b fd ff ff       	callq  10f0 <rand@plt>
    1395:	c5 f1 57 c9          	vxorpd %xmm1,%xmm1,%xmm1
    1399:	48 83 c5 08          	add    $0x8,%rbp
    139d:	48 63 c8             	movslq %eax,%rcx
    13a0:	48 89 c8             	mov    %rcx,%rax
    13a3:	48 89 ca             	mov    %rcx,%rdx
    13a6:	48 c1 e0 1e          	shl    $0x1e,%rax
    13aa:	c1 fa 1f             	sar    $0x1f,%edx
    13ad:	48 01 c8             	add    %rcx,%rax
    13b0:	48 c1 f8 3d          	sar    $0x3d,%rax
    13b4:	29 d0                	sub    %edx,%eax
    13b6:	c5 f3 2a c0          	vcvtsi2sd %eax,%xmm1,%xmm0
    13ba:	c5 fb 11 45 f8       	vmovsd %xmm0,-0x8(%rbp)
    13bf:	48 39 dd             	cmp    %rbx,%rbp
    13c2:	75 cc                	jne    1390 <fillvec+0x20>
    13c4:	48 83 c4 08          	add    $0x8,%rsp
    13c8:	5b                   	pop    %rbx
    13c9:	5d                   	pop    %rbp
    13ca:	c3                   	retq   
    13cb:	0f 1f 44 00 00       	nopl   0x0(%rax,%rax,1)
    13d0:	c3                   	retq   
    13d1:	66 66 2e 0f 1f 84 00 	data16 nopw %cs:0x0(%rax,%rax,1)
    13d8:	00 00 00 00 
    13dc:	0f 1f 40 00          	nopl   0x0(%rax)

00000000000013e0 <ttime>:
    13e0:	f3 0f 1e fa          	endbr64 
    13e4:	41 57                	push   %r15
    13e6:	8d 41 ff             	lea    -0x1(%rcx),%eax
    13e9:	41 89 cf             	mov    %ecx,%r15d
    13ec:	41 56                	push   %r14
    13ee:	48 c1 e0 03          	shl    $0x3,%rax
    13f2:	49 89 fe             	mov    %rdi,%r14
    13f5:	41 55                	push   %r13
    13f7:	4c 8d 6c 07 08       	lea    0x8(%rdi,%rax,1),%r13
    13fc:	41 54                	push   %r12
    13fe:	4c 8d 64 06 08       	lea    0x8(%rsi,%rax,1),%r12
    1403:	55                   	push   %rbp
    1404:	48 8d 6c 02 08       	lea    0x8(%rdx,%rax,1),%rbp
    1409:	53                   	push   %rbx
    140a:	48 83 ec 38          	sub    $0x38,%rsp
    140e:	48 89 74 24 08       	mov    %rsi,0x8(%rsp)
    1413:	48 89 54 24 10       	mov    %rdx,0x10(%rsp)
    1418:	c7 44 24 28 0e 00 00 	movl   $0xe,0x28(%rsp)
    141f:	00 
    1420:	c7 44 24 24 01 00 00 	movl   $0x1,0x24(%rsp)
    1427:	00 
    1428:	48 c7 44 24 18 00 00 	movq   $0x0,0x18(%rsp)
    142f:	00 00 
    1431:	0f 1f 80 00 00 00 00 	nopl   0x0(%rax)
    1438:	4c 89 f3             	mov    %r14,%rbx
    143b:	45 85 ff             	test   %r15d,%r15d
    143e:	0f 8e b8 00 00 00    	jle    14fc <ttime+0x11c>
    1444:	0f 1f 40 00          	nopl   0x0(%rax)
    1448:	e8 a3 fc ff ff       	callq  10f0 <rand@plt>
    144d:	c5 d9 57 e4          	vxorpd %xmm4,%xmm4,%xmm4
    1451:	48 83 c3 08          	add    $0x8,%rbx
    1455:	48 63 c8             	movslq %eax,%rcx
    1458:	48 89 c8             	mov    %rcx,%rax
    145b:	48 89 ca             	mov    %rcx,%rdx
    145e:	48 c1 e0 1e          	shl    $0x1e,%rax
    1462:	c1 fa 1f             	sar    $0x1f,%edx
    1465:	48 01 c8             	add    %rcx,%rax
    1468:	48 c1 f8 3d          	sar    $0x3d,%rax
    146c:	29 d0                	sub    %edx,%eax
    146e:	c5 db 2a c0          	vcvtsi2sd %eax,%xmm4,%xmm0
    1472:	c5 fb 11 43 f8       	vmovsd %xmm0,-0x8(%rbx)
    1477:	4c 39 eb             	cmp    %r13,%rbx
    147a:	75 cc                	jne    1448 <ttime+0x68>
    147c:	48 8b 5c 24 08       	mov    0x8(%rsp),%rbx
    1481:	0f 1f 80 00 00 00 00 	nopl   0x0(%rax)
    1488:	e8 63 fc ff ff       	callq  10f0 <rand@plt>
    148d:	c5 d1 57 ed          	vxorpd %xmm5,%xmm5,%xmm5
    1491:	48 83 c3 08          	add    $0x8,%rbx
    1495:	48 63 c8             	movslq %eax,%rcx
    1498:	48 89 c8             	mov    %rcx,%rax
    149b:	48 89 ca             	mov    %rcx,%rdx
    149e:	48 c1 e0 1e          	shl    $0x1e,%rax
    14a2:	c1 fa 1f             	sar    $0x1f,%edx
    14a5:	48 01 c8             	add    %rcx,%rax
    14a8:	48 c1 f8 3d          	sar    $0x3d,%rax
    14ac:	29 d0                	sub    %edx,%eax
    14ae:	c5 d3 2a c0          	vcvtsi2sd %eax,%xmm5,%xmm0
    14b2:	c5 fb 11 43 f8       	vmovsd %xmm0,-0x8(%rbx)
    14b7:	4c 39 e3             	cmp    %r12,%rbx
    14ba:	75 cc                	jne    1488 <ttime+0xa8>
    14bc:	48 8b 5c 24 10       	mov    0x10(%rsp),%rbx
    14c1:	0f 1f 80 00 00 00 00 	nopl   0x0(%rax)
    14c8:	e8 23 fc ff ff       	callq  10f0 <rand@plt>
    14cd:	c5 c9 57 f6          	vxorpd %xmm6,%xmm6,%xmm6
    14d1:	48 83 c3 08          	add    $0x8,%rbx
    14d5:	48 63 c8             	movslq %eax,%rcx
    14d8:	48 89 c8             	mov    %rcx,%rax
    14db:	48 89 ca             	mov    %rcx,%rdx
    14de:	48 c1 e0 1e          	shl    $0x1e,%rax
    14e2:	c1 fa 1f             	sar    $0x1f,%edx
    14e5:	48 01 c8             	add    %rcx,%rax
    14e8:	48 c1 f8 3d          	sar    $0x3d,%rax
    14ec:	29 d0                	sub    %edx,%eax
    14ee:	c5 cb 2a c0          	vcvtsi2sd %eax,%xmm6,%xmm0
    14f2:	c5 fb 11 43 f8       	vmovsd %xmm0,-0x8(%rbx)
    14f7:	48 39 dd             	cmp    %rbx,%rbp
    14fa:	75 cc                	jne    14c8 <ttime+0xe8>
    14fc:	45 31 c9             	xor    %r9d,%r9d
    14ff:	44 89 c8             	mov    %r9d,%eax
    1502:	0f a2                	cpuid  
    1504:	0f 31                	rdtsc  
    1506:	48 c1 e2 20          	shl    $0x20,%rdx
    150a:	41 89 c0             	mov    %eax,%r8d
    150d:	48 8b 74 24 08       	mov    0x8(%rsp),%rsi
    1512:	44 89 f9             	mov    %r15d,%ecx
    1515:	49 09 d0             	or     %rdx,%r8
    1518:	48 8b 54 24 10       	mov    0x10(%rsp),%rdx
    151d:	4c 89 f7             	mov    %r14,%rdi
    1520:	e8 ab fd ff ff       	callq  12d0 <comp>
    1525:	0f 31                	rdtsc  
    1527:	48 c1 e2 20          	shl    $0x20,%rdx
    152b:	89 c6                	mov    %eax,%esi
    152d:	44 89 c8             	mov    %r9d,%eax
    1530:	48 09 d6             	or     %rdx,%rsi
    1533:	0f a2                	cpuid  
    1535:	4c 29 c6             	sub    %r8,%rsi
    1538:	48 01 74 24 18       	add    %rsi,0x18(%rsp)
    153d:	48 8b 44 24 18       	mov    0x18(%rsp),%rax
    1542:	c5 c1 57 ff          	vxorpd %xmm7,%xmm7,%xmm7
    1546:	c4 e1 c3 2a c0       	vcvtsi2sd %rax,%xmm7,%xmm0
    154b:	c5 f9 2f 05 bd 0a 00 	vcomisd 0xabd(%rip),%xmm0        # 2010 <_IO_stdin_used+0x10>
    1552:	00 
    1553:	73 0f                	jae    1564 <ttime+0x184>
    1555:	d1 64 24 24          	shll   0x24(%rsp)
    1559:	83 6c 24 28 01       	subl   $0x1,0x28(%rsp)
    155e:	0f 85 d4 fe ff ff    	jne    1438 <ttime+0x58>
    1564:	c7 44 24 18 00 00 00 	movl   $0x0,0x18(%rsp)
    156b:	00 
    156c:	48 c7 44 24 28 00 00 	movq   $0x0,0x28(%rsp)
    1573:	00 00 
    1575:	0f 1f 00             	nopl   (%rax)
    1578:	4c 89 f3             	mov    %r14,%rbx
    157b:	45 85 ff             	test   %r15d,%r15d
    157e:	0f 8e b8 00 00 00    	jle    163c <ttime+0x25c>
    1584:	0f 1f 40 00          	nopl   0x0(%rax)
    1588:	e8 63 fb ff ff       	callq  10f0 <rand@plt>
    158d:	c5 f1 57 c9          	vxorpd %xmm1,%xmm1,%xmm1
    1591:	48 83 c3 08          	add    $0x8,%rbx
    1595:	48 63 c8             	movslq %eax,%rcx
    1598:	48 89 c8             	mov    %rcx,%rax
    159b:	48 89 ca             	mov    %rcx,%rdx
    159e:	48 c1 e0 1e          	shl    $0x1e,%rax
    15a2:	c1 fa 1f             	sar    $0x1f,%edx
    15a5:	48 01 c8             	add    %rcx,%rax
    15a8:	48 c1 f8 3d          	sar    $0x3d,%rax
    15ac:	29 d0                	sub    %edx,%eax
    15ae:	c5 f3 2a c0          	vcvtsi2sd %eax,%xmm1,%xmm0
    15b2:	c5 fb 11 43 f8       	vmovsd %xmm0,-0x8(%rbx)
    15b7:	4c 39 eb             	cmp    %r13,%rbx
    15ba:	75 cc                	jne    1588 <ttime+0x1a8>
    15bc:	48 8b 5c 24 08       	mov    0x8(%rsp),%rbx
    15c1:	0f 1f 80 00 00 00 00 	nopl   0x0(%rax)
    15c8:	e8 23 fb ff ff       	callq  10f0 <rand@plt>
    15cd:	c5 e9 57 d2          	vxorpd %xmm2,%xmm2,%xmm2
    15d1:	48 83 c3 08          	add    $0x8,%rbx
    15d5:	48 63 c8             	movslq %eax,%rcx
    15d8:	48 89 c8             	mov    %rcx,%rax
    15db:	48 89 ca             	mov    %rcx,%rdx
    15de:	48 c1 e0 1e          	shl    $0x1e,%rax
    15e2:	c1 fa 1f             	sar    $0x1f,%edx
    15e5:	48 01 c8             	add    %rcx,%rax
    15e8:	48 c1 f8 3d          	sar    $0x3d,%rax
    15ec:	29 d0                	sub    %edx,%eax
    15ee:	c5 eb 2a c0          	vcvtsi2sd %eax,%xmm2,%xmm0
    15f2:	c5 fb 11 43 f8       	vmovsd %xmm0,-0x8(%rbx)
    15f7:	4c 39 e3             	cmp    %r12,%rbx
    15fa:	75 cc                	jne    15c8 <ttime+0x1e8>
    15fc:	48 8b 5c 24 10       	mov    0x10(%rsp),%rbx
    1601:	0f 1f 80 00 00 00 00 	nopl   0x0(%rax)
    1608:	e8 e3 fa ff ff       	callq  10f0 <rand@plt>
    160d:	c5 e1 57 db          	vxorpd %xmm3,%xmm3,%xmm3
    1611:	48 83 c3 08          	add    $0x8,%rbx
    1615:	48 63 c8             	movslq %eax,%rcx
    1618:	48 89 c8             	mov    %rcx,%rax
    161b:	48 89 ca             	mov    %rcx,%rdx
    161e:	48 c1 e0 1e          	shl    $0x1e,%rax
    1622:	c1 fa 1f             	sar    $0x1f,%edx
    1625:	48 01 c8             	add    %rcx,%rax
    1628:	48 c1 f8 3d          	sar    $0x3d,%rax
    162c:	29 d0                	sub    %edx,%eax
    162e:	c5 e3 2a c0          	vcvtsi2sd %eax,%xmm3,%xmm0
    1632:	c5 fb 11 43 f8       	vmovsd %xmm0,-0x8(%rbx)
    1637:	48 39 dd             	cmp    %rbx,%rbp
    163a:	75 cc                	jne    1608 <ttime+0x228>
    163c:	45 31 c9             	xor    %r9d,%r9d
    163f:	44 89 c8             	mov    %r9d,%eax
    1642:	0f a2                	cpuid  
    1644:	0f 31                	rdtsc  
    1646:	48 c1 e2 20          	shl    $0x20,%rdx
    164a:	41 89 c0             	mov    %eax,%r8d
    164d:	48 8b 74 24 08       	mov    0x8(%rsp),%rsi
    1652:	44 89 f9             	mov    %r15d,%ecx
    1655:	49 09 d0             	or     %rdx,%r8
    1658:	48 8b 54 24 10       	mov    0x10(%rsp),%rdx
    165d:	4c 89 f7             	mov    %r14,%rdi
    1660:	e8 6b fc ff ff       	callq  12d0 <comp>
    1665:	0f 31                	rdtsc  
    1667:	48 c1 e2 20          	shl    $0x20,%rdx
    166b:	89 c6                	mov    %eax,%esi
    166d:	44 89 c8             	mov    %r9d,%eax
    1670:	48 09 d6             	or     %rdx,%rsi
    1673:	0f a2                	cpuid  
    1675:	83 44 24 18 01       	addl   $0x1,0x18(%rsp)
    167a:	4c 29 c6             	sub    %r8,%rsi
    167d:	8b 44 24 18          	mov    0x18(%rsp),%eax
    1681:	48 01 74 24 28       	add    %rsi,0x28(%rsp)
    1686:	3b 44 24 24          	cmp    0x24(%rsp),%eax
    168a:	0f 85 e8 fe ff ff    	jne    1578 <ttime+0x198>
    1690:	48 8b 44 24 28       	mov    0x28(%rsp),%rax
    1695:	48 63 4c 24 18       	movslq 0x18(%rsp),%rcx
    169a:	c5 c1 57 ff          	vxorpd %xmm7,%xmm7,%xmm7
    169e:	48 83 c4 38          	add    $0x38,%rsp
    16a2:	5b                   	pop    %rbx
    16a3:	5d                   	pop    %rbp
    16a4:	48 99                	cqto   
    16a6:	41 5c                	pop    %r12
    16a8:	41 5d                	pop    %r13
    16aa:	48 f7 f9             	idiv   %rcx
    16ad:	41 5e                	pop    %r14
    16af:	41 5f                	pop    %r15
    16b1:	c4 e1 c3 2a c0       	vcvtsi2sd %rax,%xmm7,%xmm0
    16b6:	c3                   	retq   
    16b7:	66 0f 1f 84 00 00 00 	nopw   0x0(%rax,%rax,1)
    16be:	00 00 

00000000000016c0 <__libc_csu_init>:
    16c0:	f3 0f 1e fa          	endbr64 
    16c4:	41 57                	push   %r15
    16c6:	4c 8d 3d c3 26 00 00 	lea    0x26c3(%rip),%r15        # 3d90 <__frame_dummy_init_array_entry>
    16cd:	41 56                	push   %r14
    16cf:	49 89 d6             	mov    %rdx,%r14
    16d2:	41 55                	push   %r13
    16d4:	49 89 f5             	mov    %rsi,%r13
    16d7:	41 54                	push   %r12
    16d9:	41 89 fc             	mov    %edi,%r12d
    16dc:	55                   	push   %rbp
    16dd:	48 8d 2d b4 26 00 00 	lea    0x26b4(%rip),%rbp        # 3d98 <__do_global_dtors_aux_fini_array_entry>
    16e4:	53                   	push   %rbx
    16e5:	4c 29 fd             	sub    %r15,%rbp
    16e8:	48 83 ec 08          	sub    $0x8,%rsp
    16ec:	e8 0f f9 ff ff       	callq  1000 <_init>
    16f1:	48 c1 fd 03          	sar    $0x3,%rbp
    16f5:	74 1f                	je     1716 <__libc_csu_init+0x56>
    16f7:	31 db                	xor    %ebx,%ebx
    16f9:	0f 1f 80 00 00 00 00 	nopl   0x0(%rax)
    1700:	4c 89 f2             	mov    %r14,%rdx
    1703:	4c 89 ee             	mov    %r13,%rsi
    1706:	44 89 e7             	mov    %r12d,%edi
    1709:	41 ff 14 df          	callq  *(%r15,%rbx,8)
    170d:	48 83 c3 01          	add    $0x1,%rbx
    1711:	48 39 dd             	cmp    %rbx,%rbp
    1714:	75 ea                	jne    1700 <__libc_csu_init+0x40>
    1716:	48 83 c4 08          	add    $0x8,%rsp
    171a:	5b                   	pop    %rbx
    171b:	5d                   	pop    %rbp
    171c:	41 5c                	pop    %r12
    171e:	41 5d                	pop    %r13
    1720:	41 5e                	pop    %r14
    1722:	41 5f                	pop    %r15
    1724:	c3                   	retq   
    1725:	66 66 2e 0f 1f 84 00 	data16 nopw %cs:0x0(%rax,%rax,1)
    172c:	00 00 00 00 

0000000000001730 <__libc_csu_fini>:
    1730:	f3 0f 1e fa          	endbr64 
    1734:	c3                   	retq   

Disassembly of section .fini:

0000000000001738 <_fini>:
    1738:	f3 0f 1e fa          	endbr64 
    173c:	48 83 ec 08          	sub    $0x8,%rsp
    1740:	48 83 c4 08          	add    $0x8,%rsp
    1744:	c3                   	retq   
