
p4_3:     file format elf64-x86-64


Disassembly of section .init:

0000000000001000 <_init>:
    1000:	f3 0f 1e fa          	endbr64 
    1004:	48 83 ec 08          	sub    $0x8,%rsp
    1008:	48 8b 05 d9 2f 00 00 	mov    0x2fd9(%rip),%rax        # 3fe8 <__gmon_start__>
    100f:	48 85 c0             	test   %rax,%rax
    1012:	74 02                	je     1016 <_init+0x16>
    1014:	ff d0                	callq  *%rax
    1016:	48 83 c4 08          	add    $0x8,%rsp
    101a:	c3                   	retq   

Disassembly of section .plt:

0000000000001020 <.plt>:
    1020:	ff 35 72 2f 00 00    	pushq  0x2f72(%rip)        # 3f98 <_GLOBAL_OFFSET_TABLE_+0x8>
    1026:	f2 ff 25 73 2f 00 00 	bnd jmpq *0x2f73(%rip)        # 3fa0 <_GLOBAL_OFFSET_TABLE_+0x10>
    102d:	0f 1f 00             	nopl   (%rax)
    1030:	f3 0f 1e fa          	endbr64 
    1034:	68 00 00 00 00       	pushq  $0x0
    1039:	f2 e9 e1 ff ff ff    	bnd jmpq 1020 <.plt>
    103f:	90                   	nop
    1040:	f3 0f 1e fa          	endbr64 
    1044:	68 01 00 00 00       	pushq  $0x1
    1049:	f2 e9 d1 ff ff ff    	bnd jmpq 1020 <.plt>
    104f:	90                   	nop
    1050:	f3 0f 1e fa          	endbr64 
    1054:	68 02 00 00 00       	pushq  $0x2
    1059:	f2 e9 c1 ff ff ff    	bnd jmpq 1020 <.plt>
    105f:	90                   	nop
    1060:	f3 0f 1e fa          	endbr64 
    1064:	68 03 00 00 00       	pushq  $0x3
    1069:	f2 e9 b1 ff ff ff    	bnd jmpq 1020 <.plt>
    106f:	90                   	nop
    1070:	f3 0f 1e fa          	endbr64 
    1074:	68 04 00 00 00       	pushq  $0x4
    1079:	f2 e9 a1 ff ff ff    	bnd jmpq 1020 <.plt>
    107f:	90                   	nop
    1080:	f3 0f 1e fa          	endbr64 
    1084:	68 05 00 00 00       	pushq  $0x5
    1089:	f2 e9 91 ff ff ff    	bnd jmpq 1020 <.plt>
    108f:	90                   	nop

Disassembly of section .plt.got:

0000000000001090 <__cxa_finalize@plt>:
    1090:	f3 0f 1e fa          	endbr64 
    1094:	f2 ff 25 5d 2f 00 00 	bnd jmpq *0x2f5d(%rip)        # 3ff8 <__cxa_finalize@GLIBC_2.2.5>
    109b:	0f 1f 44 00 00       	nopl   0x0(%rax,%rax,1)

Disassembly of section .plt.sec:

00000000000010a0 <srand@plt>:
    10a0:	f3 0f 1e fa          	endbr64 
    10a4:	f2 ff 25 fd 2e 00 00 	bnd jmpq *0x2efd(%rip)        # 3fa8 <srand@GLIBC_2.2.5>
    10ab:	0f 1f 44 00 00       	nopl   0x0(%rax,%rax,1)

00000000000010b0 <strtol@plt>:
    10b0:	f3 0f 1e fa          	endbr64 
    10b4:	f2 ff 25 f5 2e 00 00 	bnd jmpq *0x2ef5(%rip)        # 3fb0 <strtol@GLIBC_2.2.5>
    10bb:	0f 1f 44 00 00       	nopl   0x0(%rax,%rax,1)

00000000000010c0 <time@plt>:
    10c0:	f3 0f 1e fa          	endbr64 
    10c4:	f2 ff 25 ed 2e 00 00 	bnd jmpq *0x2eed(%rip)        # 3fb8 <time@GLIBC_2.2.5>
    10cb:	0f 1f 44 00 00       	nopl   0x0(%rax,%rax,1)

00000000000010d0 <malloc@plt>:
    10d0:	f3 0f 1e fa          	endbr64 
    10d4:	f2 ff 25 e5 2e 00 00 	bnd jmpq *0x2ee5(%rip)        # 3fc0 <malloc@GLIBC_2.2.5>
    10db:	0f 1f 44 00 00       	nopl   0x0(%rax,%rax,1)

00000000000010e0 <__printf_chk@plt>:
    10e0:	f3 0f 1e fa          	endbr64 
    10e4:	f2 ff 25 dd 2e 00 00 	bnd jmpq *0x2edd(%rip)        # 3fc8 <__printf_chk@GLIBC_2.3.4>
    10eb:	0f 1f 44 00 00       	nopl   0x0(%rax,%rax,1)

00000000000010f0 <rand@plt>:
    10f0:	f3 0f 1e fa          	endbr64 
    10f4:	f2 ff 25 d5 2e 00 00 	bnd jmpq *0x2ed5(%rip)        # 3fd0 <rand@GLIBC_2.2.5>
    10fb:	0f 1f 44 00 00       	nopl   0x0(%rax,%rax,1)

Disassembly of section .text:

0000000000001100 <main>:
    1100:	f3 0f 1e fa          	endbr64 
    1104:	41 55                	push   %r13
    1106:	31 ff                	xor    %edi,%edi
    1108:	41 54                	push   %r12
    110a:	55                   	push   %rbp
    110b:	53                   	push   %rbx
    110c:	48 89 f3             	mov    %rsi,%rbx
    110f:	48 83 ec 08          	sub    $0x8,%rsp
    1113:	e8 a8 ff ff ff       	callq  10c0 <time@plt>
    1118:	48 89 c7             	mov    %rax,%rdi
    111b:	e8 80 ff ff ff       	callq  10a0 <srand@plt>
    1120:	48 8b 7b 08          	mov    0x8(%rbx),%rdi
    1124:	ba 0a 00 00 00       	mov    $0xa,%edx
    1129:	31 f6                	xor    %esi,%esi
    112b:	e8 80 ff ff ff       	callq  10b0 <strtol@plt>
    1130:	48 63 e8             	movslq %eax,%rbp
    1133:	48 89 c3             	mov    %rax,%rbx
    1136:	48 c1 e5 03          	shl    $0x3,%rbp
    113a:	48 89 ef             	mov    %rbp,%rdi
    113d:	e8 8e ff ff ff       	callq  10d0 <malloc@plt>
    1142:	48 89 ef             	mov    %rbp,%rdi
    1145:	49 89 c4             	mov    %rax,%r12
    1148:	e8 83 ff ff ff       	callq  10d0 <malloc@plt>
    114d:	48 89 ef             	mov    %rbp,%rdi
    1150:	49 89 c5             	mov    %rax,%r13
    1153:	e8 78 ff ff ff       	callq  10d0 <malloc@plt>
    1158:	89 d9                	mov    %ebx,%ecx
    115a:	4c 89 ee             	mov    %r13,%rsi
    115d:	4c 89 e7             	mov    %r12,%rdi
    1160:	48 89 c2             	mov    %rax,%rdx
    1163:	e8 b8 02 00 00       	callq  1420 <ttime>
    1168:	bf 01 00 00 00       	mov    $0x1,%edi
    116d:	b8 01 00 00 00       	mov    $0x1,%eax
    1172:	48 8d 35 8b 0e 00 00 	lea    0xe8b(%rip),%rsi        # 2004 <_IO_stdin_used+0x4>
    1179:	e8 62 ff ff ff       	callq  10e0 <__printf_chk@plt>
    117e:	48 83 c4 08          	add    $0x8,%rsp
    1182:	31 c0                	xor    %eax,%eax
    1184:	5b                   	pop    %rbx
    1185:	5d                   	pop    %rbp
    1186:	41 5c                	pop    %r12
    1188:	41 5d                	pop    %r13
    118a:	c3                   	retq   
    118b:	0f 1f 44 00 00       	nopl   0x0(%rax,%rax,1)

0000000000001190 <set_fast_math>:
    1190:	f3 0f 1e fa          	endbr64 
    1194:	0f ae 5c 24 fc       	stmxcsr -0x4(%rsp)
    1199:	81 4c 24 fc 40 80 00 	orl    $0x8040,-0x4(%rsp)
    11a0:	00 
    11a1:	0f ae 54 24 fc       	ldmxcsr -0x4(%rsp)
    11a6:	c3                   	retq   
    11a7:	66 0f 1f 84 00 00 00 	nopw   0x0(%rax,%rax,1)
    11ae:	00 00 

00000000000011b0 <_start>:
    11b0:	f3 0f 1e fa          	endbr64 
    11b4:	31 ed                	xor    %ebp,%ebp
    11b6:	49 89 d1             	mov    %rdx,%r9
    11b9:	5e                   	pop    %rsi
    11ba:	48 89 e2             	mov    %rsp,%rdx
    11bd:	48 83 e4 f0          	and    $0xfffffffffffffff0,%rsp
    11c1:	50                   	push   %rax
    11c2:	54                   	push   %rsp
    11c3:	4c 8d 05 a6 05 00 00 	lea    0x5a6(%rip),%r8        # 1770 <__libc_csu_fini>
    11ca:	48 8d 0d 2f 05 00 00 	lea    0x52f(%rip),%rcx        # 1700 <__libc_csu_init>
    11d1:	48 8d 3d 28 ff ff ff 	lea    -0xd8(%rip),%rdi        # 1100 <main>
    11d8:	ff 15 02 2e 00 00    	callq  *0x2e02(%rip)        # 3fe0 <__libc_start_main@GLIBC_2.2.5>
    11de:	f4                   	hlt    
    11df:	90                   	nop

00000000000011e0 <deregister_tm_clones>:
    11e0:	48 8d 3d 29 2e 00 00 	lea    0x2e29(%rip),%rdi        # 4010 <__TMC_END__>
    11e7:	48 8d 05 22 2e 00 00 	lea    0x2e22(%rip),%rax        # 4010 <__TMC_END__>
    11ee:	48 39 f8             	cmp    %rdi,%rax
    11f1:	74 15                	je     1208 <deregister_tm_clones+0x28>
    11f3:	48 8b 05 de 2d 00 00 	mov    0x2dde(%rip),%rax        # 3fd8 <_ITM_deregisterTMCloneTable>
    11fa:	48 85 c0             	test   %rax,%rax
    11fd:	74 09                	je     1208 <deregister_tm_clones+0x28>
    11ff:	ff e0                	jmpq   *%rax
    1201:	0f 1f 80 00 00 00 00 	nopl   0x0(%rax)
    1208:	c3                   	retq   
    1209:	0f 1f 80 00 00 00 00 	nopl   0x0(%rax)

0000000000001210 <register_tm_clones>:
    1210:	48 8d 3d f9 2d 00 00 	lea    0x2df9(%rip),%rdi        # 4010 <__TMC_END__>
    1217:	48 8d 35 f2 2d 00 00 	lea    0x2df2(%rip),%rsi        # 4010 <__TMC_END__>
    121e:	48 29 fe             	sub    %rdi,%rsi
    1221:	48 89 f0             	mov    %rsi,%rax
    1224:	48 c1 ee 3f          	shr    $0x3f,%rsi
    1228:	48 c1 f8 03          	sar    $0x3,%rax
    122c:	48 01 c6             	add    %rax,%rsi
    122f:	48 d1 fe             	sar    %rsi
    1232:	74 14                	je     1248 <register_tm_clones+0x38>
    1234:	48 8b 05 b5 2d 00 00 	mov    0x2db5(%rip),%rax        # 3ff0 <_ITM_registerTMCloneTable>
    123b:	48 85 c0             	test   %rax,%rax
    123e:	74 08                	je     1248 <register_tm_clones+0x38>
    1240:	ff e0                	jmpq   *%rax
    1242:	66 0f 1f 44 00 00    	nopw   0x0(%rax,%rax,1)
    1248:	c3                   	retq   
    1249:	0f 1f 80 00 00 00 00 	nopl   0x0(%rax)

0000000000001250 <__do_global_dtors_aux>:
    1250:	f3 0f 1e fa          	endbr64 
    1254:	80 3d b5 2d 00 00 00 	cmpb   $0x0,0x2db5(%rip)        # 4010 <__TMC_END__>
    125b:	75 2b                	jne    1288 <__do_global_dtors_aux+0x38>
    125d:	55                   	push   %rbp
    125e:	48 83 3d 92 2d 00 00 	cmpq   $0x0,0x2d92(%rip)        # 3ff8 <__cxa_finalize@GLIBC_2.2.5>
    1265:	00 
    1266:	48 89 e5             	mov    %rsp,%rbp
    1269:	74 0c                	je     1277 <__do_global_dtors_aux+0x27>
    126b:	48 8b 3d 96 2d 00 00 	mov    0x2d96(%rip),%rdi        # 4008 <__dso_handle>
    1272:	e8 19 fe ff ff       	callq  1090 <__cxa_finalize@plt>
    1277:	e8 64 ff ff ff       	callq  11e0 <deregister_tm_clones>
    127c:	c6 05 8d 2d 00 00 01 	movb   $0x1,0x2d8d(%rip)        # 4010 <__TMC_END__>
    1283:	5d                   	pop    %rbp
    1284:	c3                   	retq   
    1285:	0f 1f 00             	nopl   (%rax)
    1288:	c3                   	retq   
    1289:	0f 1f 80 00 00 00 00 	nopl   0x0(%rax)

0000000000001290 <frame_dummy>:
    1290:	f3 0f 1e fa          	endbr64 
    1294:	e9 77 ff ff ff       	jmpq   1210 <register_tm_clones>
    1299:	0f 1f 80 00 00 00 00 	nopl   0x0(%rax)

00000000000012a0 <init_tsc>:
    12a0:	f3 0f 1e fa          	endbr64 
    12a4:	c3                   	retq   
    12a5:	66 66 2e 0f 1f 84 00 	data16 nopw %cs:0x0(%rax,%rax,1)
    12ac:	00 00 00 00 

00000000000012b0 <start_tsc>:
    12b0:	f3 0f 1e fa          	endbr64 
    12b4:	53                   	push   %rbx
    12b5:	31 c0                	xor    %eax,%eax
    12b7:	0f a2                	cpuid  
    12b9:	0f 31                	rdtsc  
    12bb:	48 c1 e2 20          	shl    $0x20,%rdx
    12bf:	89 c0                	mov    %eax,%eax
    12c1:	5b                   	pop    %rbx
    12c2:	48 09 d0             	or     %rdx,%rax
    12c5:	c3                   	retq   
    12c6:	66 2e 0f 1f 84 00 00 	nopw   %cs:0x0(%rax,%rax,1)
    12cd:	00 00 00 

00000000000012d0 <stop_tsc>:
    12d0:	f3 0f 1e fa          	endbr64 
    12d4:	53                   	push   %rbx
    12d5:	0f 31                	rdtsc  
    12d7:	48 c1 e2 20          	shl    $0x20,%rdx
    12db:	89 c6                	mov    %eax,%esi
    12dd:	31 c0                	xor    %eax,%eax
    12df:	48 09 d6             	or     %rdx,%rsi
    12e2:	0f a2                	cpuid  
    12e4:	48 89 f0             	mov    %rsi,%rax
    12e7:	5b                   	pop    %rbx
    12e8:	48 29 f8             	sub    %rdi,%rax
    12eb:	c3                   	retq   
    12ec:	0f 1f 40 00          	nopl   0x0(%rax)

00000000000012f0 <comp>:
    12f0:	f3 0f 1e fa          	endbr64 
    12f4:	85 c9                	test   %ecx,%ecx
    12f6:	0f 8e af 00 00 00    	jle    13ab <comp+0xbb>
    12fc:	83 e9 01             	sub    $0x1,%ecx
    12ff:	f2 0f 10 32          	movsd  (%rdx),%xmm6
    1303:	f2 0f 10 6a 08       	movsd  0x8(%rdx),%xmm5
    1308:	c1 e9 02             	shr    $0x2,%ecx
    130b:	48 c1 e1 05          	shl    $0x5,%rcx
    130f:	48 8d 44 0f 20       	lea    0x20(%rdi,%rcx,1),%rax
    1314:	0f 1f 40 00          	nopl   0x0(%rax)
    1318:	f2 44 0f 10 4f 10    	movsd  0x10(%rdi),%xmm9
    131e:	f2 44 0f 10 47 18    	movsd  0x18(%rdi),%xmm8
    1324:	48 83 c7 20          	add    $0x20,%rdi
    1328:	48 83 c6 20          	add    $0x20,%rsi
    132c:	f2 0f 10 4e f8       	movsd  -0x8(%rsi),%xmm1
    1331:	f2 0f 10 16          	movsd  (%rsi),%xmm2
    1335:	66 41 0f 28 f9       	movapd %xmm9,%xmm7
    133a:	f2 0f 10 47 e8       	movsd  -0x18(%rdi),%xmm0
    133f:	f2 0f 10 66 e8       	movsd  -0x18(%rsi),%xmm4
    1344:	f2 0f 59 f9          	mulsd  %xmm1,%xmm7
    1348:	f2 0f 10 5e f0       	movsd  -0x10(%rsi),%xmm3
    134d:	f2 41 0f 59 d0       	mulsd  %xmm8,%xmm2
    1352:	66 44 0f 28 d0       	movapd %xmm0,%xmm10
    1357:	f2 0f 59 0f          	mulsd  (%rdi),%xmm1
    135b:	f2 0f 59 46 e0       	mulsd  -0x20(%rsi),%xmm0
    1360:	f2 44 0f 59 d3       	mulsd  %xmm3,%xmm10
    1365:	f2 41 0f 59 d8       	mulsd  %xmm8,%xmm3
    136a:	f2 0f 58 d7          	addsd  %xmm7,%xmm2
    136e:	f2 0f 10 7f e0       	movsd  -0x20(%rdi),%xmm7
    1373:	f2 0f 59 fc          	mulsd  %xmm4,%xmm7
    1377:	f2 41 0f 59 e1       	mulsd  %xmm9,%xmm4
    137c:	f2 0f 58 cb          	addsd  %xmm3,%xmm1
    1380:	f2 41 0f 58 fa       	addsd  %xmm10,%xmm7
    1385:	f2 0f 58 c4          	addsd  %xmm4,%xmm0
    1389:	f2 0f 58 d7          	addsd  %xmm7,%xmm2
    138d:	f2 0f 58 c1          	addsd  %xmm1,%xmm0
    1391:	f2 0f 58 ea          	addsd  %xmm2,%xmm5
    1395:	f2 0f 58 f0          	addsd  %xmm0,%xmm6
    1399:	f2 0f 11 6a 08       	movsd  %xmm5,0x8(%rdx)
    139e:	f2 0f 11 32          	movsd  %xmm6,(%rdx)
    13a2:	48 39 f8             	cmp    %rdi,%rax
    13a5:	0f 85 6d ff ff ff    	jne    1318 <comp+0x28>
    13ab:	c3                   	retq   
    13ac:	0f 1f 40 00          	nopl   0x0(%rax)

00000000000013b0 <fillvec>:
    13b0:	f3 0f 1e fa          	endbr64 
    13b4:	85 f6                	test   %esi,%esi
    13b6:	7e 58                	jle    1410 <fillvec+0x60>
    13b8:	55                   	push   %rbp
    13b9:	8d 46 ff             	lea    -0x1(%rsi),%eax
    13bc:	48 89 fd             	mov    %rdi,%rbp
    13bf:	53                   	push   %rbx
    13c0:	48 8d 5c c7 08       	lea    0x8(%rdi,%rax,8),%rbx
    13c5:	48 83 ec 08          	sub    $0x8,%rsp
    13c9:	0f 1f 80 00 00 00 00 	nopl   0x0(%rax)
    13d0:	e8 1b fd ff ff       	callq  10f0 <rand@plt>
    13d5:	66 0f ef c0          	pxor   %xmm0,%xmm0
    13d9:	48 83 c5 08          	add    $0x8,%rbp
    13dd:	48 63 c8             	movslq %eax,%rcx
    13e0:	48 89 c8             	mov    %rcx,%rax
    13e3:	48 89 ca             	mov    %rcx,%rdx
    13e6:	48 c1 e0 1e          	shl    $0x1e,%rax
    13ea:	c1 fa 1f             	sar    $0x1f,%edx
    13ed:	48 01 c8             	add    %rcx,%rax
    13f0:	48 c1 f8 3d          	sar    $0x3d,%rax
    13f4:	29 d0                	sub    %edx,%eax
    13f6:	f2 0f 2a c0          	cvtsi2sd %eax,%xmm0
    13fa:	f2 0f 11 45 f8       	movsd  %xmm0,-0x8(%rbp)
    13ff:	48 39 dd             	cmp    %rbx,%rbp
    1402:	75 cc                	jne    13d0 <fillvec+0x20>
    1404:	48 83 c4 08          	add    $0x8,%rsp
    1408:	5b                   	pop    %rbx
    1409:	5d                   	pop    %rbp
    140a:	c3                   	retq   
    140b:	0f 1f 44 00 00       	nopl   0x0(%rax,%rax,1)
    1410:	c3                   	retq   
    1411:	66 66 2e 0f 1f 84 00 	data16 nopw %cs:0x0(%rax,%rax,1)
    1418:	00 00 00 00 
    141c:	0f 1f 40 00          	nopl   0x0(%rax)

0000000000001420 <ttime>:
    1420:	f3 0f 1e fa          	endbr64 
    1424:	41 57                	push   %r15
    1426:	8d 41 ff             	lea    -0x1(%rcx),%eax
    1429:	41 89 cf             	mov    %ecx,%r15d
    142c:	41 56                	push   %r14
    142e:	48 c1 e0 03          	shl    $0x3,%rax
    1432:	49 89 fe             	mov    %rdi,%r14
    1435:	41 55                	push   %r13
    1437:	4c 8d 6c 07 08       	lea    0x8(%rdi,%rax,1),%r13
    143c:	41 54                	push   %r12
    143e:	4c 8d 64 06 08       	lea    0x8(%rsi,%rax,1),%r12
    1443:	55                   	push   %rbp
    1444:	48 8d 6c 02 08       	lea    0x8(%rdx,%rax,1),%rbp
    1449:	53                   	push   %rbx
    144a:	48 83 ec 38          	sub    $0x38,%rsp
    144e:	48 89 74 24 08       	mov    %rsi,0x8(%rsp)
    1453:	48 89 54 24 10       	mov    %rdx,0x10(%rsp)
    1458:	c7 44 24 28 0e 00 00 	movl   $0xe,0x28(%rsp)
    145f:	00 
    1460:	c7 44 24 24 01 00 00 	movl   $0x1,0x24(%rsp)
    1467:	00 
    1468:	48 c7 44 24 18 00 00 	movq   $0x0,0x18(%rsp)
    146f:	00 00 
    1471:	0f 1f 80 00 00 00 00 	nopl   0x0(%rax)
    1478:	4c 89 f3             	mov    %r14,%rbx
    147b:	45 85 ff             	test   %r15d,%r15d
    147e:	0f 8e b8 00 00 00    	jle    153c <ttime+0x11c>
    1484:	0f 1f 40 00          	nopl   0x0(%rax)
    1488:	e8 63 fc ff ff       	callq  10f0 <rand@plt>
    148d:	66 0f ef c0          	pxor   %xmm0,%xmm0
    1491:	48 83 c3 08          	add    $0x8,%rbx
    1495:	48 63 c8             	movslq %eax,%rcx
    1498:	48 89 c8             	mov    %rcx,%rax
    149b:	48 89 ca             	mov    %rcx,%rdx
    149e:	48 c1 e0 1e          	shl    $0x1e,%rax
    14a2:	c1 fa 1f             	sar    $0x1f,%edx
    14a5:	48 01 c8             	add    %rcx,%rax
    14a8:	48 c1 f8 3d          	sar    $0x3d,%rax
    14ac:	29 d0                	sub    %edx,%eax
    14ae:	f2 0f 2a c0          	cvtsi2sd %eax,%xmm0
    14b2:	f2 0f 11 43 f8       	movsd  %xmm0,-0x8(%rbx)
    14b7:	4c 39 eb             	cmp    %r13,%rbx
    14ba:	75 cc                	jne    1488 <ttime+0x68>
    14bc:	48 8b 5c 24 08       	mov    0x8(%rsp),%rbx
    14c1:	0f 1f 80 00 00 00 00 	nopl   0x0(%rax)
    14c8:	e8 23 fc ff ff       	callq  10f0 <rand@plt>
    14cd:	66 0f ef c0          	pxor   %xmm0,%xmm0
    14d1:	48 83 c3 08          	add    $0x8,%rbx
    14d5:	48 63 c8             	movslq %eax,%rcx
    14d8:	48 89 c8             	mov    %rcx,%rax
    14db:	48 89 ca             	mov    %rcx,%rdx
    14de:	48 c1 e0 1e          	shl    $0x1e,%rax
    14e2:	c1 fa 1f             	sar    $0x1f,%edx
    14e5:	48 01 c8             	add    %rcx,%rax
    14e8:	48 c1 f8 3d          	sar    $0x3d,%rax
    14ec:	29 d0                	sub    %edx,%eax
    14ee:	f2 0f 2a c0          	cvtsi2sd %eax,%xmm0
    14f2:	f2 0f 11 43 f8       	movsd  %xmm0,-0x8(%rbx)
    14f7:	4c 39 e3             	cmp    %r12,%rbx
    14fa:	75 cc                	jne    14c8 <ttime+0xa8>
    14fc:	48 8b 5c 24 10       	mov    0x10(%rsp),%rbx
    1501:	0f 1f 80 00 00 00 00 	nopl   0x0(%rax)
    1508:	e8 e3 fb ff ff       	callq  10f0 <rand@plt>
    150d:	66 0f ef c0          	pxor   %xmm0,%xmm0
    1511:	48 83 c3 08          	add    $0x8,%rbx
    1515:	48 63 c8             	movslq %eax,%rcx
    1518:	48 89 c8             	mov    %rcx,%rax
    151b:	48 89 ca             	mov    %rcx,%rdx
    151e:	48 c1 e0 1e          	shl    $0x1e,%rax
    1522:	c1 fa 1f             	sar    $0x1f,%edx
    1525:	48 01 c8             	add    %rcx,%rax
    1528:	48 c1 f8 3d          	sar    $0x3d,%rax
    152c:	29 d0                	sub    %edx,%eax
    152e:	f2 0f 2a c0          	cvtsi2sd %eax,%xmm0
    1532:	f2 0f 11 43 f8       	movsd  %xmm0,-0x8(%rbx)
    1537:	48 39 dd             	cmp    %rbx,%rbp
    153a:	75 cc                	jne    1508 <ttime+0xe8>
    153c:	45 31 c9             	xor    %r9d,%r9d
    153f:	44 89 c8             	mov    %r9d,%eax
    1542:	0f a2                	cpuid  
    1544:	0f 31                	rdtsc  
    1546:	48 c1 e2 20          	shl    $0x20,%rdx
    154a:	41 89 c0             	mov    %eax,%r8d
    154d:	48 8b 74 24 08       	mov    0x8(%rsp),%rsi
    1552:	44 89 f9             	mov    %r15d,%ecx
    1555:	49 09 d0             	or     %rdx,%r8
    1558:	48 8b 54 24 10       	mov    0x10(%rsp),%rdx
    155d:	4c 89 f7             	mov    %r14,%rdi
    1560:	e8 8b fd ff ff       	callq  12f0 <comp>
    1565:	0f 31                	rdtsc  
    1567:	48 c1 e2 20          	shl    $0x20,%rdx
    156b:	89 c6                	mov    %eax,%esi
    156d:	44 89 c8             	mov    %r9d,%eax
    1570:	48 09 d6             	or     %rdx,%rsi
    1573:	0f a2                	cpuid  
    1575:	4c 29 c6             	sub    %r8,%rsi
    1578:	48 01 74 24 18       	add    %rsi,0x18(%rsp)
    157d:	48 8b 44 24 18       	mov    0x18(%rsp),%rax
    1582:	66 0f ef c0          	pxor   %xmm0,%xmm0
    1586:	f2 48 0f 2a c0       	cvtsi2sd %rax,%xmm0
    158b:	66 0f 2f 05 7d 0a 00 	comisd 0xa7d(%rip),%xmm0        # 2010 <_IO_stdin_used+0x10>
    1592:	00 
    1593:	73 0f                	jae    15a4 <ttime+0x184>
    1595:	d1 64 24 24          	shll   0x24(%rsp)
    1599:	83 6c 24 28 01       	subl   $0x1,0x28(%rsp)
    159e:	0f 85 d4 fe ff ff    	jne    1478 <ttime+0x58>
    15a4:	c7 44 24 18 00 00 00 	movl   $0x0,0x18(%rsp)
    15ab:	00 
    15ac:	48 c7 44 24 28 00 00 	movq   $0x0,0x28(%rsp)
    15b3:	00 00 
    15b5:	0f 1f 00             	nopl   (%rax)
    15b8:	4c 89 f3             	mov    %r14,%rbx
    15bb:	45 85 ff             	test   %r15d,%r15d
    15be:	0f 8e b8 00 00 00    	jle    167c <ttime+0x25c>
    15c4:	0f 1f 40 00          	nopl   0x0(%rax)
    15c8:	e8 23 fb ff ff       	callq  10f0 <rand@plt>
    15cd:	66 0f ef c0          	pxor   %xmm0,%xmm0
    15d1:	48 83 c3 08          	add    $0x8,%rbx
    15d5:	48 63 c8             	movslq %eax,%rcx
    15d8:	48 89 c8             	mov    %rcx,%rax
    15db:	48 89 ca             	mov    %rcx,%rdx
    15de:	48 c1 e0 1e          	shl    $0x1e,%rax
    15e2:	c1 fa 1f             	sar    $0x1f,%edx
    15e5:	48 01 c8             	add    %rcx,%rax
    15e8:	48 c1 f8 3d          	sar    $0x3d,%rax
    15ec:	29 d0                	sub    %edx,%eax
    15ee:	f2 0f 2a c0          	cvtsi2sd %eax,%xmm0
    15f2:	f2 0f 11 43 f8       	movsd  %xmm0,-0x8(%rbx)
    15f7:	4c 39 eb             	cmp    %r13,%rbx
    15fa:	75 cc                	jne    15c8 <ttime+0x1a8>
    15fc:	48 8b 5c 24 08       	mov    0x8(%rsp),%rbx
    1601:	0f 1f 80 00 00 00 00 	nopl   0x0(%rax)
    1608:	e8 e3 fa ff ff       	callq  10f0 <rand@plt>
    160d:	66 0f ef c0          	pxor   %xmm0,%xmm0
    1611:	48 83 c3 08          	add    $0x8,%rbx
    1615:	48 63 c8             	movslq %eax,%rcx
    1618:	48 89 c8             	mov    %rcx,%rax
    161b:	48 89 ca             	mov    %rcx,%rdx
    161e:	48 c1 e0 1e          	shl    $0x1e,%rax
    1622:	c1 fa 1f             	sar    $0x1f,%edx
    1625:	48 01 c8             	add    %rcx,%rax
    1628:	48 c1 f8 3d          	sar    $0x3d,%rax
    162c:	29 d0                	sub    %edx,%eax
    162e:	f2 0f 2a c0          	cvtsi2sd %eax,%xmm0
    1632:	f2 0f 11 43 f8       	movsd  %xmm0,-0x8(%rbx)
    1637:	4c 39 e3             	cmp    %r12,%rbx
    163a:	75 cc                	jne    1608 <ttime+0x1e8>
    163c:	48 8b 5c 24 10       	mov    0x10(%rsp),%rbx
    1641:	0f 1f 80 00 00 00 00 	nopl   0x0(%rax)
    1648:	e8 a3 fa ff ff       	callq  10f0 <rand@plt>
    164d:	66 0f ef c0          	pxor   %xmm0,%xmm0
    1651:	48 83 c3 08          	add    $0x8,%rbx
    1655:	48 63 c8             	movslq %eax,%rcx
    1658:	48 89 c8             	mov    %rcx,%rax
    165b:	48 89 ca             	mov    %rcx,%rdx
    165e:	48 c1 e0 1e          	shl    $0x1e,%rax
    1662:	c1 fa 1f             	sar    $0x1f,%edx
    1665:	48 01 c8             	add    %rcx,%rax
    1668:	48 c1 f8 3d          	sar    $0x3d,%rax
    166c:	29 d0                	sub    %edx,%eax
    166e:	f2 0f 2a c0          	cvtsi2sd %eax,%xmm0
    1672:	f2 0f 11 43 f8       	movsd  %xmm0,-0x8(%rbx)
    1677:	48 39 dd             	cmp    %rbx,%rbp
    167a:	75 cc                	jne    1648 <ttime+0x228>
    167c:	45 31 c9             	xor    %r9d,%r9d
    167f:	44 89 c8             	mov    %r9d,%eax
    1682:	0f a2                	cpuid  
    1684:	0f 31                	rdtsc  
    1686:	48 c1 e2 20          	shl    $0x20,%rdx
    168a:	41 89 c0             	mov    %eax,%r8d
    168d:	48 8b 74 24 08       	mov    0x8(%rsp),%rsi
    1692:	44 89 f9             	mov    %r15d,%ecx
    1695:	49 09 d0             	or     %rdx,%r8
    1698:	48 8b 54 24 10       	mov    0x10(%rsp),%rdx
    169d:	4c 89 f7             	mov    %r14,%rdi
    16a0:	e8 4b fc ff ff       	callq  12f0 <comp>
    16a5:	0f 31                	rdtsc  
    16a7:	48 c1 e2 20          	shl    $0x20,%rdx
    16ab:	89 c6                	mov    %eax,%esi
    16ad:	44 89 c8             	mov    %r9d,%eax
    16b0:	48 09 d6             	or     %rdx,%rsi
    16b3:	0f a2                	cpuid  
    16b5:	83 44 24 18 01       	addl   $0x1,0x18(%rsp)
    16ba:	4c 29 c6             	sub    %r8,%rsi
    16bd:	8b 44 24 18          	mov    0x18(%rsp),%eax
    16c1:	48 01 74 24 28       	add    %rsi,0x28(%rsp)
    16c6:	3b 44 24 24          	cmp    0x24(%rsp),%eax
    16ca:	0f 85 e8 fe ff ff    	jne    15b8 <ttime+0x198>
    16d0:	48 8b 44 24 28       	mov    0x28(%rsp),%rax
    16d5:	48 63 4c 24 18       	movslq 0x18(%rsp),%rcx
    16da:	66 0f ef c0          	pxor   %xmm0,%xmm0
    16de:	48 83 c4 38          	add    $0x38,%rsp
    16e2:	5b                   	pop    %rbx
    16e3:	5d                   	pop    %rbp
    16e4:	48 99                	cqto   
    16e6:	41 5c                	pop    %r12
    16e8:	41 5d                	pop    %r13
    16ea:	48 f7 f9             	idiv   %rcx
    16ed:	41 5e                	pop    %r14
    16ef:	41 5f                	pop    %r15
    16f1:	f2 48 0f 2a c0       	cvtsi2sd %rax,%xmm0
    16f6:	c3                   	retq   
    16f7:	66 0f 1f 84 00 00 00 	nopw   0x0(%rax,%rax,1)
    16fe:	00 00 

0000000000001700 <__libc_csu_init>:
    1700:	f3 0f 1e fa          	endbr64 
    1704:	41 57                	push   %r15
    1706:	4c 8d 3d 7b 26 00 00 	lea    0x267b(%rip),%r15        # 3d88 <__frame_dummy_init_array_entry>
    170d:	41 56                	push   %r14
    170f:	49 89 d6             	mov    %rdx,%r14
    1712:	41 55                	push   %r13
    1714:	49 89 f5             	mov    %rsi,%r13
    1717:	41 54                	push   %r12
    1719:	41 89 fc             	mov    %edi,%r12d
    171c:	55                   	push   %rbp
    171d:	48 8d 2d 74 26 00 00 	lea    0x2674(%rip),%rbp        # 3d98 <__do_global_dtors_aux_fini_array_entry>
    1724:	53                   	push   %rbx
    1725:	4c 29 fd             	sub    %r15,%rbp
    1728:	48 83 ec 08          	sub    $0x8,%rsp
    172c:	e8 cf f8 ff ff       	callq  1000 <_init>
    1731:	48 c1 fd 03          	sar    $0x3,%rbp
    1735:	74 1f                	je     1756 <__libc_csu_init+0x56>
    1737:	31 db                	xor    %ebx,%ebx
    1739:	0f 1f 80 00 00 00 00 	nopl   0x0(%rax)
    1740:	4c 89 f2             	mov    %r14,%rdx
    1743:	4c 89 ee             	mov    %r13,%rsi
    1746:	44 89 e7             	mov    %r12d,%edi
    1749:	41 ff 14 df          	callq  *(%r15,%rbx,8)
    174d:	48 83 c3 01          	add    $0x1,%rbx
    1751:	48 39 dd             	cmp    %rbx,%rbp
    1754:	75 ea                	jne    1740 <__libc_csu_init+0x40>
    1756:	48 83 c4 08          	add    $0x8,%rsp
    175a:	5b                   	pop    %rbx
    175b:	5d                   	pop    %rbp
    175c:	41 5c                	pop    %r12
    175e:	41 5d                	pop    %r13
    1760:	41 5e                	pop    %r14
    1762:	41 5f                	pop    %r15
    1764:	c3                   	retq   
    1765:	66 66 2e 0f 1f 84 00 	data16 nopw %cs:0x0(%rax,%rax,1)
    176c:	00 00 00 00 

0000000000001770 <__libc_csu_fini>:
    1770:	f3 0f 1e fa          	endbr64 
    1774:	c3                   	retq   

Disassembly of section .fini:

0000000000001778 <_fini>:
    1778:	f3 0f 1e fa          	endbr64 
    177c:	48 83 ec 08          	sub    $0x8,%rsp
    1780:	48 83 c4 08          	add    $0x8,%rsp
    1784:	c3                   	retq   
