
main:     file format elf64-x86-64


Disassembly of section .init:

0000000000001000 <_init>:
    1000:	f3 0f 1e fa          	endbr64 
    1004:	48 83 ec 08          	sub    $0x8,%rsp
    1008:	48 8b 05 d9 2f 00 00 	mov    0x2fd9(%rip),%rax        # 3fe8 <__gmon_start__>
    100f:	48 85 c0             	test   %rax,%rax
    1012:	74 02                	je     1016 <_init+0x16>
    1014:	ff d0                	callq  *%rax
    1016:	48 83 c4 08          	add    $0x8,%rsp
    101a:	c3                   	retq   

Disassembly of section .plt:

0000000000001020 <.plt>:
    1020:	ff 35 2a 2f 00 00    	pushq  0x2f2a(%rip)        # 3f50 <_GLOBAL_OFFSET_TABLE_+0x8>
    1026:	f2 ff 25 2b 2f 00 00 	bnd jmpq *0x2f2b(%rip)        # 3f58 <_GLOBAL_OFFSET_TABLE_+0x10>
    102d:	0f 1f 00             	nopl   (%rax)
    1030:	f3 0f 1e fa          	endbr64 
    1034:	68 00 00 00 00       	pushq  $0x0
    1039:	f2 e9 e1 ff ff ff    	bnd jmpq 1020 <.plt>
    103f:	90                   	nop
    1040:	f3 0f 1e fa          	endbr64 
    1044:	68 01 00 00 00       	pushq  $0x1
    1049:	f2 e9 d1 ff ff ff    	bnd jmpq 1020 <.plt>
    104f:	90                   	nop
    1050:	f3 0f 1e fa          	endbr64 
    1054:	68 02 00 00 00       	pushq  $0x2
    1059:	f2 e9 c1 ff ff ff    	bnd jmpq 1020 <.plt>
    105f:	90                   	nop
    1060:	f3 0f 1e fa          	endbr64 
    1064:	68 03 00 00 00       	pushq  $0x3
    1069:	f2 e9 b1 ff ff ff    	bnd jmpq 1020 <.plt>
    106f:	90                   	nop
    1070:	f3 0f 1e fa          	endbr64 
    1074:	68 04 00 00 00       	pushq  $0x4
    1079:	f2 e9 a1 ff ff ff    	bnd jmpq 1020 <.plt>
    107f:	90                   	nop
    1080:	f3 0f 1e fa          	endbr64 
    1084:	68 05 00 00 00       	pushq  $0x5
    1089:	f2 e9 91 ff ff ff    	bnd jmpq 1020 <.plt>
    108f:	90                   	nop
    1090:	f3 0f 1e fa          	endbr64 
    1094:	68 06 00 00 00       	pushq  $0x6
    1099:	f2 e9 81 ff ff ff    	bnd jmpq 1020 <.plt>
    109f:	90                   	nop
    10a0:	f3 0f 1e fa          	endbr64 
    10a4:	68 07 00 00 00       	pushq  $0x7
    10a9:	f2 e9 71 ff ff ff    	bnd jmpq 1020 <.plt>
    10af:	90                   	nop
    10b0:	f3 0f 1e fa          	endbr64 
    10b4:	68 08 00 00 00       	pushq  $0x8
    10b9:	f2 e9 61 ff ff ff    	bnd jmpq 1020 <.plt>
    10bf:	90                   	nop
    10c0:	f3 0f 1e fa          	endbr64 
    10c4:	68 09 00 00 00       	pushq  $0x9
    10c9:	f2 e9 51 ff ff ff    	bnd jmpq 1020 <.plt>
    10cf:	90                   	nop
    10d0:	f3 0f 1e fa          	endbr64 
    10d4:	68 0a 00 00 00       	pushq  $0xa
    10d9:	f2 e9 41 ff ff ff    	bnd jmpq 1020 <.plt>
    10df:	90                   	nop
    10e0:	f3 0f 1e fa          	endbr64 
    10e4:	68 0b 00 00 00       	pushq  $0xb
    10e9:	f2 e9 31 ff ff ff    	bnd jmpq 1020 <.plt>
    10ef:	90                   	nop
    10f0:	f3 0f 1e fa          	endbr64 
    10f4:	68 0c 00 00 00       	pushq  $0xc
    10f9:	f2 e9 21 ff ff ff    	bnd jmpq 1020 <.plt>
    10ff:	90                   	nop
    1100:	f3 0f 1e fa          	endbr64 
    1104:	68 0d 00 00 00       	pushq  $0xd
    1109:	f2 e9 11 ff ff ff    	bnd jmpq 1020 <.plt>
    110f:	90                   	nop

Disassembly of section .plt.got:

0000000000001110 <__cxa_finalize@plt>:
    1110:	f3 0f 1e fa          	endbr64 
    1114:	f2 ff 25 b5 2e 00 00 	bnd jmpq *0x2eb5(%rip)        # 3fd0 <__cxa_finalize@GLIBC_2.2.5>
    111b:	0f 1f 44 00 00       	nopl   0x0(%rax,%rax,1)

Disassembly of section .plt.sec:

0000000000001120 <_ZNSo3putEc@plt>:
    1120:	f3 0f 1e fa          	endbr64 
    1124:	f2 ff 25 35 2e 00 00 	bnd jmpq *0x2e35(%rip)        # 3f60 <_ZNSo3putEc@GLIBCXX_3.4>
    112b:	0f 1f 44 00 00       	nopl   0x0(%rax,%rax,1)

0000000000001130 <rand@plt>:
    1130:	f3 0f 1e fa          	endbr64 
    1134:	f2 ff 25 2d 2e 00 00 	bnd jmpq *0x2e2d(%rip)        # 3f68 <rand@GLIBC_2.2.5>
    113b:	0f 1f 44 00 00       	nopl   0x0(%rax,%rax,1)

0000000000001140 <_ZSt4endlIcSt11char_traitsIcEERSt13basic_ostreamIT_T0_ES6_@plt>:
    1140:	f3 0f 1e fa          	endbr64 
    1144:	f2 ff 25 25 2e 00 00 	bnd jmpq *0x2e25(%rip)        # 3f70 <_ZSt4endlIcSt11char_traitsIcEERSt13basic_ostreamIT_T0_ES6_@GLIBCXX_3.4>
    114b:	0f 1f 44 00 00       	nopl   0x0(%rax,%rax,1)

0000000000001150 <_ZNSo5flushEv@plt>:
    1150:	f3 0f 1e fa          	endbr64 
    1154:	f2 ff 25 1d 2e 00 00 	bnd jmpq *0x2e1d(%rip)        # 3f78 <_ZNSo5flushEv@GLIBCXX_3.4>
    115b:	0f 1f 44 00 00       	nopl   0x0(%rax,%rax,1)

0000000000001160 <__cxa_atexit@plt>:
    1160:	f3 0f 1e fa          	endbr64 
    1164:	f2 ff 25 15 2e 00 00 	bnd jmpq *0x2e15(%rip)        # 3f80 <__cxa_atexit@GLIBC_2.2.5>
    116b:	0f 1f 44 00 00       	nopl   0x0(%rax,%rax,1)

0000000000001170 <_ZdlPv@plt>:
    1170:	f3 0f 1e fa          	endbr64 
    1174:	f2 ff 25 0d 2e 00 00 	bnd jmpq *0x2e0d(%rip)        # 3f88 <_ZdlPv@GLIBCXX_3.4>
    117b:	0f 1f 44 00 00       	nopl   0x0(%rax,%rax,1)

0000000000001180 <__stack_chk_fail@plt>:
    1180:	f3 0f 1e fa          	endbr64 
    1184:	f2 ff 25 05 2e 00 00 	bnd jmpq *0x2e05(%rip)        # 3f90 <__stack_chk_fail@GLIBC_2.4>
    118b:	0f 1f 44 00 00       	nopl   0x0(%rax,%rax,1)

0000000000001190 <_ZSt16__ostream_insertIcSt11char_traitsIcEERSt13basic_ostreamIT_T0_ES6_PKS3_l@plt>:
    1190:	f3 0f 1e fa          	endbr64 
    1194:	f2 ff 25 fd 2d 00 00 	bnd jmpq *0x2dfd(%rip)        # 3f98 <_ZSt16__ostream_insertIcSt11char_traitsIcEERSt13basic_ostreamIT_T0_ES6_PKS3_l@GLIBCXX_3.4.9>
    119b:	0f 1f 44 00 00       	nopl   0x0(%rax,%rax,1)

00000000000011a0 <_ZNKSt5ctypeIcE13_M_widen_initEv@plt>:
    11a0:	f3 0f 1e fa          	endbr64 
    11a4:	f2 ff 25 f5 2d 00 00 	bnd jmpq *0x2df5(%rip)        # 3fa0 <_ZNKSt5ctypeIcE13_M_widen_initEv@GLIBCXX_3.4.11>
    11ab:	0f 1f 44 00 00       	nopl   0x0(%rax,%rax,1)

00000000000011b0 <_ZSt16__throw_bad_castv@plt>:
    11b0:	f3 0f 1e fa          	endbr64 
    11b4:	f2 ff 25 ed 2d 00 00 	bnd jmpq *0x2ded(%rip)        # 3fa8 <_ZSt16__throw_bad_castv@GLIBCXX_3.4>
    11bb:	0f 1f 44 00 00       	nopl   0x0(%rax,%rax,1)

00000000000011c0 <_ZNSt8ios_base4InitC1Ev@plt>:
    11c0:	f3 0f 1e fa          	endbr64 
    11c4:	f2 ff 25 e5 2d 00 00 	bnd jmpq *0x2de5(%rip)        # 3fb0 <_ZNSt8ios_base4InitC1Ev@GLIBCXX_3.4>
    11cb:	0f 1f 44 00 00       	nopl   0x0(%rax,%rax,1)

00000000000011d0 <_ZNSt7__cxx1112basic_stringIcSt11char_traitsIcESaIcEE10_M_replaceEmmPKcm@plt>:
    11d0:	f3 0f 1e fa          	endbr64 
    11d4:	f2 ff 25 dd 2d 00 00 	bnd jmpq *0x2ddd(%rip)        # 3fb8 <_ZNSt7__cxx1112basic_stringIcSt11char_traitsIcESaIcEE10_M_replaceEmmPKcm@GLIBCXX_3.4.21>
    11db:	0f 1f 44 00 00       	nopl   0x0(%rax,%rax,1)

00000000000011e0 <_ZNSo9_M_insertIdEERSoT_@plt>:
    11e0:	f3 0f 1e fa          	endbr64 
    11e4:	f2 ff 25 d5 2d 00 00 	bnd jmpq *0x2dd5(%rip)        # 3fc0 <_ZNSo9_M_insertIdEERSoT_@GLIBCXX_3.4.9>
    11eb:	0f 1f 44 00 00       	nopl   0x0(%rax,%rax,1)

00000000000011f0 <_Unwind_Resume@plt>:
    11f0:	f3 0f 1e fa          	endbr64 
    11f4:	f2 ff 25 cd 2d 00 00 	bnd jmpq *0x2dcd(%rip)        # 3fc8 <_Unwind_Resume@GCC_3.0>
    11fb:	0f 1f 44 00 00       	nopl   0x0(%rax,%rax,1)

Disassembly of section .text:

0000000000001200 <_Z18run_microbenchmark21microbenchmark_mode_t.cold>:
    1200:	48 8b 7c 24 10       	mov    0x10(%rsp),%rdi
    1205:	48 39 df             	cmp    %rbx,%rdi
    1208:	74 05                	je     120f <_Z18run_microbenchmark21microbenchmark_mode_t.cold+0xf>
    120a:	e8 61 ff ff ff       	callq  1170 <_ZdlPv@plt>
    120f:	48 89 ef             	mov    %rbp,%rdi
    1212:	e8 d9 ff ff ff       	callq  11f0 <_Unwind_Resume@plt>
    1217:	66 0f 1f 84 00 00 00 	nopw   0x0(%rax,%rax,1)
    121e:	00 00 

0000000000001220 <main>:
    1220:	f3 0f 1e fa          	endbr64 
    1224:	53                   	push   %rbx
    1225:	31 db                	xor    %ebx,%ebx
    1227:	66 0f 1f 84 00 00 00 	nopw   0x0(%rax,%rax,1)
    122e:	00 00 
    1230:	89 df                	mov    %ebx,%edi
    1232:	83 c3 01             	add    $0x1,%ebx
    1235:	e8 66 01 00 00       	callq  13a0 <_Z18run_microbenchmark21microbenchmark_mode_t>
    123a:	83 fb 0a             	cmp    $0xa,%ebx
    123d:	75 f1                	jne    1230 <main+0x10>
    123f:	ba 10 00 00 00       	mov    $0x10,%edx
    1244:	48 8d 35 84 0e 00 00 	lea    0xe84(%rip),%rsi        # 20cf <_IO_stdin_used+0xcf>
    124b:	48 8d 3d ee 2d 00 00 	lea    0x2dee(%rip),%rdi        # 4040 <_ZSt4cout@@GLIBCXX_3.4>
    1252:	e8 39 ff ff ff       	callq  1190 <_ZSt16__ostream_insertIcSt11char_traitsIcEERSt13basic_ostreamIT_T0_ES6_PKS3_l@plt>
    1257:	48 8d 3d e2 2d 00 00 	lea    0x2de2(%rip),%rdi        # 4040 <_ZSt4cout@@GLIBCXX_3.4>
    125e:	e8 dd fe ff ff       	callq  1140 <_ZSt4endlIcSt11char_traitsIcEERSt13basic_ostreamIT_T0_ES6_@plt>
    1263:	31 c0                	xor    %eax,%eax
    1265:	5b                   	pop    %rbx
    1266:	c3                   	retq   
    1267:	66 0f 1f 84 00 00 00 	nopw   0x0(%rax,%rax,1)
    126e:	00 00 

0000000000001270 <_GLOBAL__sub_I__Z18run_microbenchmark21microbenchmark_mode_t>:
    1270:	f3 0f 1e fa          	endbr64 
    1274:	48 83 ec 08          	sub    $0x8,%rsp
    1278:	48 8d 3d d2 2e 00 00 	lea    0x2ed2(%rip),%rdi        # 4151 <_ZStL8__ioinit>
    127f:	e8 3c ff ff ff       	callq  11c0 <_ZNSt8ios_base4InitC1Ev@plt>
    1284:	48 8b 3d 6d 2d 00 00 	mov    0x2d6d(%rip),%rdi        # 3ff8 <_ZNSt8ios_base4InitD1Ev@GLIBCXX_3.4>
    128b:	48 83 c4 08          	add    $0x8,%rsp
    128f:	48 8d 15 72 2d 00 00 	lea    0x2d72(%rip),%rdx        # 4008 <__dso_handle>
    1296:	48 8d 35 b4 2e 00 00 	lea    0x2eb4(%rip),%rsi        # 4151 <_ZStL8__ioinit>
    129d:	e9 be fe ff ff       	jmpq   1160 <__cxa_atexit@plt>
    12a2:	66 2e 0f 1f 84 00 00 	nopw   %cs:0x0(%rax,%rax,1)
    12a9:	00 00 00 
    12ac:	0f 1f 40 00          	nopl   0x0(%rax)

00000000000012b0 <_start>:
    12b0:	f3 0f 1e fa          	endbr64 
    12b4:	31 ed                	xor    %ebp,%ebp
    12b6:	49 89 d1             	mov    %rdx,%r9
    12b9:	5e                   	pop    %rsi
    12ba:	48 89 e2             	mov    %rsp,%rdx
    12bd:	48 83 e4 f0          	and    $0xfffffffffffffff0,%rsp
    12c1:	50                   	push   %rax
    12c2:	54                   	push   %rsp
    12c3:	4c 8d 05 d6 0c 00 00 	lea    0xcd6(%rip),%r8        # 1fa0 <__libc_csu_fini>
    12ca:	48 8d 0d 5f 0c 00 00 	lea    0xc5f(%rip),%rcx        # 1f30 <__libc_csu_init>
    12d1:	48 8d 3d 48 ff ff ff 	lea    -0xb8(%rip),%rdi        # 1220 <main>
    12d8:	ff 15 02 2d 00 00    	callq  *0x2d02(%rip)        # 3fe0 <__libc_start_main@GLIBC_2.2.5>
    12de:	f4                   	hlt    
    12df:	90                   	nop

00000000000012e0 <deregister_tm_clones>:
    12e0:	48 8d 3d 31 2d 00 00 	lea    0x2d31(%rip),%rdi        # 4018 <__TMC_END__>
    12e7:	48 8d 05 2a 2d 00 00 	lea    0x2d2a(%rip),%rax        # 4018 <__TMC_END__>
    12ee:	48 39 f8             	cmp    %rdi,%rax
    12f1:	74 15                	je     1308 <deregister_tm_clones+0x28>
    12f3:	48 8b 05 de 2c 00 00 	mov    0x2cde(%rip),%rax        # 3fd8 <_ITM_deregisterTMCloneTable>
    12fa:	48 85 c0             	test   %rax,%rax
    12fd:	74 09                	je     1308 <deregister_tm_clones+0x28>
    12ff:	ff e0                	jmpq   *%rax
    1301:	0f 1f 80 00 00 00 00 	nopl   0x0(%rax)
    1308:	c3                   	retq   
    1309:	0f 1f 80 00 00 00 00 	nopl   0x0(%rax)

0000000000001310 <register_tm_clones>:
    1310:	48 8d 3d 01 2d 00 00 	lea    0x2d01(%rip),%rdi        # 4018 <__TMC_END__>
    1317:	48 8d 35 fa 2c 00 00 	lea    0x2cfa(%rip),%rsi        # 4018 <__TMC_END__>
    131e:	48 29 fe             	sub    %rdi,%rsi
    1321:	48 89 f0             	mov    %rsi,%rax
    1324:	48 c1 ee 3f          	shr    $0x3f,%rsi
    1328:	48 c1 f8 03          	sar    $0x3,%rax
    132c:	48 01 c6             	add    %rax,%rsi
    132f:	48 d1 fe             	sar    %rsi
    1332:	74 14                	je     1348 <register_tm_clones+0x38>
    1334:	48 8b 05 b5 2c 00 00 	mov    0x2cb5(%rip),%rax        # 3ff0 <_ITM_registerTMCloneTable>
    133b:	48 85 c0             	test   %rax,%rax
    133e:	74 08                	je     1348 <register_tm_clones+0x38>
    1340:	ff e0                	jmpq   *%rax
    1342:	66 0f 1f 44 00 00    	nopw   0x0(%rax,%rax,1)
    1348:	c3                   	retq   
    1349:	0f 1f 80 00 00 00 00 	nopl   0x0(%rax)

0000000000001350 <__do_global_dtors_aux>:
    1350:	f3 0f 1e fa          	endbr64 
    1354:	80 3d f5 2d 00 00 00 	cmpb   $0x0,0x2df5(%rip)        # 4150 <completed.8061>
    135b:	75 2b                	jne    1388 <__do_global_dtors_aux+0x38>
    135d:	55                   	push   %rbp
    135e:	48 83 3d 6a 2c 00 00 	cmpq   $0x0,0x2c6a(%rip)        # 3fd0 <__cxa_finalize@GLIBC_2.2.5>
    1365:	00 
    1366:	48 89 e5             	mov    %rsp,%rbp
    1369:	74 0c                	je     1377 <__do_global_dtors_aux+0x27>
    136b:	48 8b 3d 96 2c 00 00 	mov    0x2c96(%rip),%rdi        # 4008 <__dso_handle>
    1372:	e8 99 fd ff ff       	callq  1110 <__cxa_finalize@plt>
    1377:	e8 64 ff ff ff       	callq  12e0 <deregister_tm_clones>
    137c:	c6 05 cd 2d 00 00 01 	movb   $0x1,0x2dcd(%rip)        # 4150 <completed.8061>
    1383:	5d                   	pop    %rbp
    1384:	c3                   	retq   
    1385:	0f 1f 00             	nopl   (%rax)
    1388:	c3                   	retq   
    1389:	0f 1f 80 00 00 00 00 	nopl   0x0(%rax)

0000000000001390 <frame_dummy>:
    1390:	f3 0f 1e fa          	endbr64 
    1394:	e9 77 ff ff ff       	jmpq   1310 <register_tm_clones>
    1399:	0f 1f 80 00 00 00 00 	nopl   0x0(%rax)

00000000000013a0 <_Z18run_microbenchmark21microbenchmark_mode_t>:
    13a0:	f3 0f 1e fa          	endbr64 
    13a4:	41 55                	push   %r13
    13a6:	41 54                	push   %r12
    13a8:	55                   	push   %rbp
    13a9:	53                   	push   %rbx
    13aa:	48 83 ec 48          	sub    $0x48,%rsp
    13ae:	64 48 8b 04 25 28 00 	mov    %fs:0x28,%rax
    13b5:	00 00 
    13b7:	48 89 44 24 38       	mov    %rax,0x38(%rsp)
    13bc:	31 c0                	xor    %eax,%eax
    13be:	48 8d 5c 24 20       	lea    0x20(%rsp),%rbx
    13c3:	c6 44 24 20 00       	movb   $0x0,0x20(%rsp)
    13c8:	48 89 5c 24 10       	mov    %rbx,0x10(%rsp)
    13cd:	48 c7 44 24 18 00 00 	movq   $0x0,0x18(%rsp)
    13d4:	00 00 
    13d6:	83 ff 09             	cmp    $0x9,%edi
    13d9:	0f 87 73 03 00 00    	ja     1752 <_Z18run_microbenchmark21microbenchmark_mode_t+0x3b2>
    13df:	89 fa                	mov    %edi,%edx
    13e1:	48 8d 0d 44 0d 00 00 	lea    0xd44(%rip),%rcx        # 212c <_IO_stdin_used+0x12c>
    13e8:	89 fd                	mov    %edi,%ebp
    13ea:	48 63 04 91          	movslq (%rcx,%rdx,4),%rax
    13ee:	48 8d 7c 24 10       	lea    0x10(%rsp),%rdi
    13f3:	48 01 c8             	add    %rcx,%rax
    13f6:	3e ff e0             	notrack jmpq *%rax
    13f9:	0f 1f 80 00 00 00 00 	nopl   0x0(%rax)
    1400:	41 b8 12 00 00 00    	mov    $0x12,%r8d
    1406:	48 8d 0d 82 0c 00 00 	lea    0xc82(%rip),%rcx        # 208f <_IO_stdin_used+0x8f>
    140d:	31 d2                	xor    %edx,%edx
    140f:	31 f6                	xor    %esi,%esi
    1411:	e8 ba fd ff ff       	callq  11d0 <_ZNSt7__cxx1112basic_stringIcSt11char_traitsIcESaIcEE10_M_replaceEmmPKcm@plt>
    1416:	4c 8d 2d f3 0a 00 00 	lea    0xaf3(%rip),%r13        # 1f10 <_Z30microbenchmark_get_foo_latencyv>
    141d:	41 bc 1f 00 00 00    	mov    $0x1f,%r12d
    1423:	0f 1f 44 00 00       	nopl   0x0(%rax,%rax,1)
    1428:	89 ef                	mov    %ebp,%edi
    142a:	e8 e1 03 00 00       	callq  1810 <_Z30initialize_microbenchmark_data21microbenchmark_mode_t>
    142f:	41 ff d5             	callq  *%r13
    1432:	ba 09 00 00 00       	mov    $0x9,%edx
    1437:	48 8d 35 71 0c 00 00 	lea    0xc71(%rip),%rsi        # 20af <_IO_stdin_used+0xaf>
    143e:	48 8d 3d fb 2b 00 00 	lea    0x2bfb(%rip),%rdi        # 4040 <_ZSt4cout@@GLIBCXX_3.4>
    1445:	f2 0f 11 44 24 08    	movsd  %xmm0,0x8(%rsp)
    144b:	e8 40 fd ff ff       	callq  1190 <_ZSt16__ostream_insertIcSt11char_traitsIcEERSt13basic_ostreamIT_T0_ES6_PKS3_l@plt>
    1450:	48 8b 54 24 18       	mov    0x18(%rsp),%rdx
    1455:	48 8b 74 24 10       	mov    0x10(%rsp),%rsi
    145a:	48 8d 3d df 2b 00 00 	lea    0x2bdf(%rip),%rdi        # 4040 <_ZSt4cout@@GLIBCXX_3.4>
    1461:	e8 2a fd ff ff       	callq  1190 <_ZSt16__ostream_insertIcSt11char_traitsIcEERSt13basic_ostreamIT_T0_ES6_PKS3_l@plt>
    1466:	48 89 c7             	mov    %rax,%rdi
    1469:	ba 03 00 00 00       	mov    $0x3,%edx
    146e:	48 8d 35 44 0c 00 00 	lea    0xc44(%rip),%rsi        # 20b9 <_IO_stdin_used+0xb9>
    1475:	e8 16 fd ff ff       	callq  1190 <_ZSt16__ostream_insertIcSt11char_traitsIcEERSt13basic_ostreamIT_T0_ES6_PKS3_l@plt>
    147a:	ba 07 00 00 00       	mov    $0x7,%edx
    147f:	48 8d 35 37 0c 00 00 	lea    0xc37(%rip),%rsi        # 20bd <_IO_stdin_used+0xbd>
    1486:	48 8d 3d b3 2b 00 00 	lea    0x2bb3(%rip),%rdi        # 4040 <_ZSt4cout@@GLIBCXX_3.4>
    148d:	e8 fe fc ff ff       	callq  1190 <_ZSt16__ostream_insertIcSt11char_traitsIcEERSt13basic_ostreamIT_T0_ES6_PKS3_l@plt>
    1492:	48 8b 05 a7 2b 00 00 	mov    0x2ba7(%rip),%rax        # 4040 <_ZSt4cout@@GLIBCXX_3.4>
    1499:	48 8d 2d a0 2b 00 00 	lea    0x2ba0(%rip),%rbp        # 4040 <_ZSt4cout@@GLIBCXX_3.4>
    14a0:	f2 0f 10 44 24 08    	movsd  0x8(%rsp),%xmm0
    14a6:	48 89 ef             	mov    %rbp,%rdi
    14a9:	48 8b 50 e8          	mov    -0x18(%rax),%rdx
    14ad:	4c 89 64 15 10       	mov    %r12,0x10(%rbp,%rdx,1)
    14b2:	48 8b 50 e8          	mov    -0x18(%rax),%rdx
    14b6:	48 01 ea             	add    %rbp,%rdx
    14b9:	8b 42 18             	mov    0x18(%rdx),%eax
    14bc:	48 c7 42 08 06 00 00 	movq   $0x6,0x8(%rdx)
    14c3:	00 
    14c4:	25 fb fe ff ff       	and    $0xfffffefb,%eax
    14c9:	83 c8 04             	or     $0x4,%eax
    14cc:	89 42 18             	mov    %eax,0x18(%rdx)
    14cf:	e8 0c fd ff ff       	callq  11e0 <_ZNSo9_M_insertIdEERSoT_@plt>
    14d4:	ba 04 00 00 00       	mov    $0x4,%edx
    14d9:	48 8d 35 e5 0b 00 00 	lea    0xbe5(%rip),%rsi        # 20c5 <_IO_stdin_used+0xc5>
    14e0:	48 89 c7             	mov    %rax,%rdi
    14e3:	49 89 c4             	mov    %rax,%r12
    14e6:	e8 a5 fc ff ff       	callq  1190 <_ZSt16__ostream_insertIcSt11char_traitsIcEERSt13basic_ostreamIT_T0_ES6_PKS3_l@plt>
    14eb:	ba 04 00 00 00       	mov    $0x4,%edx
    14f0:	48 8d 35 d3 0b 00 00 	lea    0xbd3(%rip),%rsi        # 20ca <_IO_stdin_used+0xca>
    14f7:	4c 89 e7             	mov    %r12,%rdi
    14fa:	e8 91 fc ff ff       	callq  1190 <_ZSt16__ostream_insertIcSt11char_traitsIcEERSt13basic_ostreamIT_T0_ES6_PKS3_l@plt>
    14ff:	48 8b 05 3a 2b 00 00 	mov    0x2b3a(%rip),%rax        # 4040 <_ZSt4cout@@GLIBCXX_3.4>
    1506:	48 8b 40 e8          	mov    -0x18(%rax),%rax
    150a:	48 8b ac 05 f0 00 00 	mov    0xf0(%rbp,%rax,1),%rbp
    1511:	00 
    1512:	48 85 ed             	test   %rbp,%rbp
    1515:	0f 84 77 02 00 00    	je     1792 <_Z18run_microbenchmark21microbenchmark_mode_t+0x3f2>
    151b:	80 7d 38 00          	cmpb   $0x0,0x38(%rbp)
    151f:	0f 84 fb 01 00 00    	je     1720 <_Z18run_microbenchmark21microbenchmark_mode_t+0x380>
    1525:	0f be 75 43          	movsbl 0x43(%rbp),%esi
    1529:	48 8d 3d 10 2b 00 00 	lea    0x2b10(%rip),%rdi        # 4040 <_ZSt4cout@@GLIBCXX_3.4>
    1530:	e8 eb fb ff ff       	callq  1120 <_ZNSo3putEc@plt>
    1535:	48 89 c7             	mov    %rax,%rdi
    1538:	e8 13 fc ff ff       	callq  1150 <_ZNSo5flushEv@plt>
    153d:	48 8b 7c 24 10       	mov    0x10(%rsp),%rdi
    1542:	48 39 df             	cmp    %rbx,%rdi
    1545:	74 05                	je     154c <_Z18run_microbenchmark21microbenchmark_mode_t+0x1ac>
    1547:	e8 24 fc ff ff       	callq  1170 <_ZdlPv@plt>
    154c:	48 8b 44 24 38       	mov    0x38(%rsp),%rax
    1551:	64 48 33 04 25 28 00 	xor    %fs:0x28,%rax
    1558:	00 00 
    155a:	0f 85 37 02 00 00    	jne    1797 <_Z18run_microbenchmark21microbenchmark_mode_t+0x3f7>
    1560:	48 83 c4 48          	add    $0x48,%rsp
    1564:	5b                   	pop    %rbx
    1565:	5d                   	pop    %rbp
    1566:	41 5c                	pop    %r12
    1568:	41 5d                	pop    %r13
    156a:	c3                   	retq   
    156b:	0f 1f 44 00 00       	nopl   0x0(%rax,%rax,1)
    1570:	41 b8 20 00 00 00    	mov    $0x20,%r8d
    1576:	48 8d 0d 8b 0b 00 00 	lea    0xb8b(%rip),%rcx        # 2108 <_IO_stdin_used+0x108>
    157d:	31 d2                	xor    %edx,%edx
    157f:	31 f6                	xor    %esi,%esi
    1581:	e8 4a fc ff ff       	callq  11d0 <_ZNSt7__cxx1112basic_stringIcSt11char_traitsIcESaIcEE10_M_replaceEmmPKcm@plt>
    1586:	4c 8d 2d 93 09 00 00 	lea    0x993(%rip),%r13        # 1f20 <_Z29microbenchmark_get_foo_rec_tpv>
    158d:	41 bc 11 00 00 00    	mov    $0x11,%r12d
    1593:	e9 90 fe ff ff       	jmpq   1428 <_Z18run_microbenchmark21microbenchmark_mode_t+0x88>
    1598:	0f 1f 84 00 00 00 00 	nopl   0x0(%rax,%rax,1)
    159f:	00 
    15a0:	41 b8 0c 00 00 00    	mov    $0xc,%r8d
    15a6:	48 8d 0d 57 0a 00 00 	lea    0xa57(%rip),%rcx        # 2004 <_IO_stdin_used+0x4>
    15ad:	31 d2                	xor    %edx,%edx
    15af:	31 f6                	xor    %esi,%esi
    15b1:	e8 1a fc ff ff       	callq  11d0 <_ZNSt7__cxx1112basic_stringIcSt11char_traitsIcESaIcEE10_M_replaceEmmPKcm@plt>
    15b6:	4c 8d 2d 83 03 00 00 	lea    0x383(%rip),%r13        # 1940 <_Z30microbenchmark_get_add_latencyv>
    15bd:	41 bc 25 00 00 00    	mov    $0x25,%r12d
    15c3:	e9 60 fe ff ff       	jmpq   1428 <_Z18run_microbenchmark21microbenchmark_mode_t+0x88>
    15c8:	0f 1f 84 00 00 00 00 	nopl   0x0(%rax,%rax,1)
    15cf:	00 
    15d0:	41 b8 1a 00 00 00    	mov    $0x1a,%r8d
    15d6:	48 8d 0d 34 0a 00 00 	lea    0xa34(%rip),%rcx        # 2011 <_IO_stdin_used+0x11>
    15dd:	31 d2                	xor    %edx,%edx
    15df:	31 f6                	xor    %esi,%esi
    15e1:	e8 ea fb ff ff       	callq  11d0 <_ZNSt7__cxx1112basic_stringIcSt11char_traitsIcESaIcEE10_M_replaceEmmPKcm@plt>
    15e6:	4c 8d 2d 43 04 00 00 	lea    0x443(%rip),%r13        # 1a30 <_Z29microbenchmark_get_add_rec_tpv>
    15ed:	41 bc 17 00 00 00    	mov    $0x17,%r12d
    15f3:	e9 30 fe ff ff       	jmpq   1428 <_Z18run_microbenchmark21microbenchmark_mode_t+0x88>
    15f8:	0f 1f 84 00 00 00 00 	nopl   0x0(%rax,%rax,1)
    15ff:	00 
    1600:	41 b8 0c 00 00 00    	mov    $0xc,%r8d
    1606:	48 8d 0d 1f 0a 00 00 	lea    0xa1f(%rip),%rcx        # 202c <_IO_stdin_used+0x2c>
    160d:	31 d2                	xor    %edx,%edx
    160f:	31 f6                	xor    %esi,%esi
    1611:	e8 ba fb ff ff       	callq  11d0 <_ZNSt7__cxx1112basic_stringIcSt11char_traitsIcESaIcEE10_M_replaceEmmPKcm@plt>
    1616:	4c 8d 2d c3 06 00 00 	lea    0x6c3(%rip),%r13        # 1ce0 <_Z30microbenchmark_get_sqt_latencyv>
    161d:	41 bc 25 00 00 00    	mov    $0x25,%r12d
    1623:	e9 00 fe ff ff       	jmpq   1428 <_Z18run_microbenchmark21microbenchmark_mode_t+0x88>
    1628:	0f 1f 84 00 00 00 00 	nopl   0x0(%rax,%rax,1)
    162f:	00 
    1630:	41 b8 1a 00 00 00    	mov    $0x1a,%r8d
    1636:	48 8d 0d fc 09 00 00 	lea    0x9fc(%rip),%rcx        # 2039 <_IO_stdin_used+0x39>
    163d:	31 d2                	xor    %edx,%edx
    163f:	31 f6                	xor    %esi,%esi
    1641:	e8 8a fb ff ff       	callq  11d0 <_ZNSt7__cxx1112basic_stringIcSt11char_traitsIcESaIcEE10_M_replaceEmmPKcm@plt>
    1646:	4c 8d 2d 53 07 00 00 	lea    0x753(%rip),%r13        # 1da0 <_Z29microbenchmark_get_sqt_rec_tpv>
    164d:	41 bc 17 00 00 00    	mov    $0x17,%r12d
    1653:	e9 d0 fd ff ff       	jmpq   1428 <_Z18run_microbenchmark21microbenchmark_mode_t+0x88>
    1658:	0f 1f 84 00 00 00 00 	nopl   0x0(%rax,%rax,1)
    165f:	00 
    1660:	41 b8 12 00 00 00    	mov    $0x12,%r8d
    1666:	48 8d 0d e7 09 00 00 	lea    0x9e7(%rip),%rcx        # 2054 <_IO_stdin_used+0x54>
    166d:	31 d2                	xor    %edx,%edx
    166f:	31 f6                	xor    %esi,%esi
    1671:	e8 5a fb ff ff       	callq  11d0 <_ZNSt7__cxx1112basic_stringIcSt11char_traitsIcESaIcEE10_M_replaceEmmPKcm@plt>
    1676:	4c 8d 2d 63 06 00 00 	lea    0x663(%rip),%r13        # 1ce0 <_Z30microbenchmark_get_sqt_latencyv>
    167d:	41 bc 1f 00 00 00    	mov    $0x1f,%r12d
    1683:	e9 a0 fd ff ff       	jmpq   1428 <_Z18run_microbenchmark21microbenchmark_mode_t+0x88>
    1688:	0f 1f 84 00 00 00 00 	nopl   0x0(%rax,%rax,1)
    168f:	00 
    1690:	41 b8 20 00 00 00    	mov    $0x20,%r8d
    1696:	48 8d 0d 43 0a 00 00 	lea    0xa43(%rip),%rcx        # 20e0 <_IO_stdin_used+0xe0>
    169d:	31 d2                	xor    %edx,%edx
    169f:	31 f6                	xor    %esi,%esi
    16a1:	e8 2a fb ff ff       	callq  11d0 <_ZNSt7__cxx1112basic_stringIcSt11char_traitsIcESaIcEE10_M_replaceEmmPKcm@plt>
    16a6:	4c 8d 2d f3 06 00 00 	lea    0x6f3(%rip),%r13        # 1da0 <_Z29microbenchmark_get_sqt_rec_tpv>
    16ad:	41 bc 11 00 00 00    	mov    $0x11,%r12d
    16b3:	e9 70 fd ff ff       	jmpq   1428 <_Z18run_microbenchmark21microbenchmark_mode_t+0x88>
    16b8:	0f 1f 84 00 00 00 00 	nopl   0x0(%rax,%rax,1)
    16bf:	00 
    16c0:	41 b8 0c 00 00 00    	mov    $0xc,%r8d
    16c6:	48 8d 0d 9a 09 00 00 	lea    0x99a(%rip),%rcx        # 2067 <_IO_stdin_used+0x67>
    16cd:	31 d2                	xor    %edx,%edx
    16cf:	31 f6                	xor    %esi,%esi
    16d1:	e8 fa fa ff ff       	callq  11d0 <_ZNSt7__cxx1112basic_stringIcSt11char_traitsIcESaIcEE10_M_replaceEmmPKcm@plt>
    16d6:	4c 8d 2d 33 08 00 00 	lea    0x833(%rip),%r13        # 1f10 <_Z30microbenchmark_get_foo_latencyv>
    16dd:	41 bc 25 00 00 00    	mov    $0x25,%r12d
    16e3:	e9 40 fd ff ff       	jmpq   1428 <_Z18run_microbenchmark21microbenchmark_mode_t+0x88>
    16e8:	0f 1f 84 00 00 00 00 	nopl   0x0(%rax,%rax,1)
    16ef:	00 
    16f0:	41 b8 1a 00 00 00    	mov    $0x1a,%r8d
    16f6:	48 8d 0d 77 09 00 00 	lea    0x977(%rip),%rcx        # 2074 <_IO_stdin_used+0x74>
    16fd:	31 d2                	xor    %edx,%edx
    16ff:	31 f6                	xor    %esi,%esi
    1701:	e8 ca fa ff ff       	callq  11d0 <_ZNSt7__cxx1112basic_stringIcSt11char_traitsIcESaIcEE10_M_replaceEmmPKcm@plt>
    1706:	4c 8d 2d 13 08 00 00 	lea    0x813(%rip),%r13        # 1f20 <_Z29microbenchmark_get_foo_rec_tpv>
    170d:	41 bc 17 00 00 00    	mov    $0x17,%r12d
    1713:	e9 10 fd ff ff       	jmpq   1428 <_Z18run_microbenchmark21microbenchmark_mode_t+0x88>
    1718:	0f 1f 84 00 00 00 00 	nopl   0x0(%rax,%rax,1)
    171f:	00 
    1720:	48 89 ef             	mov    %rbp,%rdi
    1723:	e8 78 fa ff ff       	callq  11a0 <_ZNKSt5ctypeIcE13_M_widen_initEv@plt>
    1728:	48 8b 45 00          	mov    0x0(%rbp),%rax
    172c:	48 8d 15 7d 00 00 00 	lea    0x7d(%rip),%rdx        # 17b0 <_ZNKSt5ctypeIcE8do_widenEc>
    1733:	be 0a 00 00 00       	mov    $0xa,%esi
    1738:	48 8b 40 30          	mov    0x30(%rax),%rax
    173c:	48 39 d0             	cmp    %rdx,%rax
    173f:	0f 84 e4 fd ff ff    	je     1529 <_Z18run_microbenchmark21microbenchmark_mode_t+0x189>
    1745:	48 89 ef             	mov    %rbp,%rdi
    1748:	ff d0                	callq  *%rax
    174a:	0f be f0             	movsbl %al,%esi
    174d:	e9 d7 fd ff ff       	jmpq   1529 <_Z18run_microbenchmark21microbenchmark_mode_t+0x189>
    1752:	ba 0c 00 00 00       	mov    $0xc,%edx
    1757:	48 8d 35 44 09 00 00 	lea    0x944(%rip),%rsi        # 20a2 <_IO_stdin_used+0xa2>
    175e:	48 8d 3d db 28 00 00 	lea    0x28db(%rip),%rdi        # 4040 <_ZSt4cout@@GLIBCXX_3.4>
    1765:	e8 26 fa ff ff       	callq  1190 <_ZSt16__ostream_insertIcSt11char_traitsIcEERSt13basic_ostreamIT_T0_ES6_PKS3_l@plt>
    176a:	48 8b 05 cf 28 00 00 	mov    0x28cf(%rip),%rax        # 4040 <_ZSt4cout@@GLIBCXX_3.4>
    1771:	48 8d 15 c8 28 00 00 	lea    0x28c8(%rip),%rdx        # 4040 <_ZSt4cout@@GLIBCXX_3.4>
    1778:	48 8b 40 e8          	mov    -0x18(%rax),%rax
    177c:	48 8b ac 02 f0 00 00 	mov    0xf0(%rdx,%rax,1),%rbp
    1783:	00 
    1784:	48 85 ed             	test   %rbp,%rbp
    1787:	0f 85 8e fd ff ff    	jne    151b <_Z18run_microbenchmark21microbenchmark_mode_t+0x17b>
    178d:	e8 1e fa ff ff       	callq  11b0 <_ZSt16__throw_bad_castv@plt>
    1792:	e8 19 fa ff ff       	callq  11b0 <_ZSt16__throw_bad_castv@plt>
    1797:	e8 e4 f9 ff ff       	callq  1180 <__stack_chk_fail@plt>
    179c:	f3 0f 1e fa          	endbr64 
    17a0:	48 89 c5             	mov    %rax,%rbp
    17a3:	e9 58 fa ff ff       	jmpq   1200 <_Z18run_microbenchmark21microbenchmark_mode_t.cold>
    17a8:	0f 1f 84 00 00 00 00 	nopl   0x0(%rax,%rax,1)
    17af:	00 

00000000000017b0 <_ZNKSt5ctypeIcE8do_widenEc>:
    17b0:	f3 0f 1e fa          	endbr64 
    17b4:	89 f0                	mov    %esi,%eax
    17b6:	c3                   	retq   
    17b7:	66 0f 1f 84 00 00 00 	nopw   0x0(%rax,%rax,1)
    17be:	00 00 

00000000000017c0 <_Z8init_tscv>:
    17c0:	f3 0f 1e fa          	endbr64 
    17c4:	c3                   	retq   
    17c5:	66 66 2e 0f 1f 84 00 	data16 nopw %cs:0x0(%rax,%rax,1)
    17cc:	00 00 00 00 

00000000000017d0 <_Z9start_tscv>:
    17d0:	f3 0f 1e fa          	endbr64 
    17d4:	53                   	push   %rbx
    17d5:	31 c0                	xor    %eax,%eax
    17d7:	0f a2                	cpuid  
    17d9:	0f 31                	rdtsc  
    17db:	48 c1 e2 20          	shl    $0x20,%rdx
    17df:	89 c0                	mov    %eax,%eax
    17e1:	5b                   	pop    %rbx
    17e2:	48 09 d0             	or     %rdx,%rax
    17e5:	c3                   	retq   
    17e6:	66 2e 0f 1f 84 00 00 	nopw   %cs:0x0(%rax,%rax,1)
    17ed:	00 00 00 

00000000000017f0 <_Z8stop_tscy>:
    17f0:	f3 0f 1e fa          	endbr64 
    17f4:	53                   	push   %rbx
    17f5:	0f 31                	rdtsc  
    17f7:	48 c1 e2 20          	shl    $0x20,%rdx
    17fb:	89 c6                	mov    %eax,%esi
    17fd:	31 c0                	xor    %eax,%eax
    17ff:	48 09 d6             	or     %rdx,%rsi
    1802:	0f a2                	cpuid  
    1804:	48 89 f0             	mov    %rsi,%rax
    1807:	5b                   	pop    %rbx
    1808:	48 29 f8             	sub    %rdi,%rax
    180b:	c3                   	retq   
    180c:	0f 1f 40 00          	nopl   0x0(%rax)

0000000000001810 <_Z30initialize_microbenchmark_data21microbenchmark_mode_t>:
    1810:	f3 0f 1e fa          	endbr64 
    1814:	83 ff 04             	cmp    $0x4,%edi
    1817:	0f 84 94 00 00 00    	je     18b1 <_Z30initialize_microbenchmark_data21microbenchmark_mode_t+0xa1>
    181d:	77 61                	ja     1880 <_Z30initialize_microbenchmark_data21microbenchmark_mode_t+0x70>
    181f:	41 54                	push   %r12
    1821:	55                   	push   %rbp
    1822:	53                   	push   %rbx
    1823:	48 83 ec 10          	sub    $0x10,%rsp
    1827:	83 ff 03             	cmp    $0x3,%edi
    182a:	0f 84 b0 00 00 00    	je     18e0 <_Z30initialize_microbenchmark_data21microbenchmark_mode_t+0xd0>
    1830:	f2 0f 10 1d 20 09 00 	movsd  0x920(%rip),%xmm3        # 2158 <_IO_stdin_used+0x158>
    1837:	00 
    1838:	48 8d 1d 81 4e f4 00 	lea    0xf44e81(%rip),%rbx        # f466c0 <arr>
    183f:	48 8d ab 00 12 7a 00 	lea    0x7a1200(%rbx),%rbp
    1846:	f2 0f 11 5c 24 08    	movsd  %xmm3,0x8(%rsp)
    184c:	0f 1f 40 00          	nopl   0x0(%rax)
    1850:	e8 db f8 ff ff       	callq  1130 <rand@plt>
    1855:	66 0f ef c0          	pxor   %xmm0,%xmm0
    1859:	48 83 c3 08          	add    $0x8,%rbx
    185d:	f2 0f 2a c0          	cvtsi2sd %eax,%xmm0
    1861:	f2 0f 5e 44 24 08    	divsd  0x8(%rsp),%xmm0
    1867:	f2 0f 11 43 f8       	movsd  %xmm0,-0x8(%rbx)
    186c:	48 39 dd             	cmp    %rbx,%rbp
    186f:	75 df                	jne    1850 <_Z30initialize_microbenchmark_data21microbenchmark_mode_t+0x40>
    1871:	48 83 c4 10          	add    $0x10,%rsp
    1875:	5b                   	pop    %rbx
    1876:	5d                   	pop    %rbp
    1877:	41 5c                	pop    %r12
    1879:	c3                   	retq   
    187a:	66 0f 1f 44 00 00    	nopw   0x0(%rax,%rax,1)
    1880:	48 8d 05 39 4e f4 00 	lea    0xf44e39(%rip),%rax        # f466c0 <arr>
    1887:	f2 0f 10 05 d1 08 00 	movsd  0x8d1(%rip),%xmm0        # 2160 <_IO_stdin_used+0x160>
    188e:	00 
    188f:	48 8d 90 00 12 7a 00 	lea    0x7a1200(%rax),%rdx
    1896:	83 ff 05             	cmp    $0x5,%edi
    1899:	75 15                	jne    18b0 <_Z30initialize_microbenchmark_data21microbenchmark_mode_t+0xa0>
    189b:	0f 1f 44 00 00       	nopl   0x0(%rax,%rax,1)
    18a0:	f2 0f 11 00          	movsd  %xmm0,(%rax)
    18a4:	48 83 c0 08          	add    $0x8,%rax
    18a8:	48 39 d0             	cmp    %rdx,%rax
    18ab:	75 f3                	jne    18a0 <_Z30initialize_microbenchmark_data21microbenchmark_mode_t+0x90>
    18ad:	c3                   	retq   
    18ae:	66 90                	xchg   %ax,%ax
    18b0:	c3                   	retq   
    18b1:	48 8d 05 08 4e f4 00 	lea    0xf44e08(%rip),%rax        # f466c0 <arr>
    18b8:	f2 0f 10 05 a0 08 00 	movsd  0x8a0(%rip),%xmm0        # 2160 <_IO_stdin_used+0x160>
    18bf:	00 
    18c0:	48 8d 90 00 12 7a 00 	lea    0x7a1200(%rax),%rdx
    18c7:	66 0f 1f 84 00 00 00 	nopw   0x0(%rax,%rax,1)
    18ce:	00 00 
    18d0:	f2 0f 11 00          	movsd  %xmm0,(%rax)
    18d4:	48 83 c0 08          	add    $0x8,%rax
    18d8:	48 39 d0             	cmp    %rdx,%rax
    18db:	75 f3                	jne    18d0 <_Z30initialize_microbenchmark_data21microbenchmark_mode_t+0xc0>
    18dd:	c3                   	retq   
    18de:	66 90                	xchg   %ax,%ax
    18e0:	f2 0f 10 25 70 08 00 	movsd  0x870(%rip),%xmm4        # 2158 <_IO_stdin_used+0x158>
    18e7:	00 
    18e8:	48 8d 1d d1 4d f4 00 	lea    0xf44dd1(%rip),%rbx        # f466c0 <arr>
    18ef:	48 8d 2d 8a 3b 7a 00 	lea    0x7a3b8a(%rip),%rbp        # 7a5480 <arr_t>
    18f6:	4c 8d a3 00 12 7a 00 	lea    0x7a1200(%rbx),%r12
    18fd:	f2 0f 11 64 24 08    	movsd  %xmm4,0x8(%rsp)
    1903:	0f 1f 44 00 00       	nopl   0x0(%rax,%rax,1)
    1908:	e8 23 f8 ff ff       	callq  1130 <rand@plt>
    190d:	66 0f ef c0          	pxor   %xmm0,%xmm0
    1911:	48 83 c3 08          	add    $0x8,%rbx
    1915:	48 83 c5 08          	add    $0x8,%rbp
    1919:	f2 0f 2a c0          	cvtsi2sd %eax,%xmm0
    191d:	f2 0f 5e 44 24 08    	divsd  0x8(%rsp),%xmm0
    1923:	f2 0f 11 43 f8       	movsd  %xmm0,-0x8(%rbx)
    1928:	f2 0f 11 45 f8       	movsd  %xmm0,-0x8(%rbp)
    192d:	4c 39 e3             	cmp    %r12,%rbx
    1930:	75 d6                	jne    1908 <_Z30initialize_microbenchmark_data21microbenchmark_mode_t+0xf8>
    1932:	48 83 c4 10          	add    $0x10,%rsp
    1936:	5b                   	pop    %rbx
    1937:	5d                   	pop    %rbp
    1938:	41 5c                	pop    %r12
    193a:	c3                   	retq   
    193b:	0f 1f 44 00 00       	nopl   0x0(%rax,%rax,1)

0000000000001940 <_Z30microbenchmark_get_add_latencyv>:
    1940:	f3 0f 1e fa          	endbr64 
    1944:	41 54                	push   %r12
    1946:	55                   	push   %rbp
    1947:	48 8d 2d 72 4d f4 00 	lea    0xf44d72(%rip),%rbp        # f466c0 <arr>
    194e:	53                   	push   %rbx
    194f:	4c 8d a5 00 12 7a 00 	lea    0x7a1200(%rbp),%r12
    1956:	48 89 eb             	mov    %rbp,%rbx
    1959:	0f 1f 80 00 00 00 00 	nopl   0x0(%rax)
    1960:	e8 cb f7 ff ff       	callq  1130 <rand@plt>
    1965:	66 0f ef c0          	pxor   %xmm0,%xmm0
    1969:	48 83 c3 08          	add    $0x8,%rbx
    196d:	f2 0f 2a c0          	cvtsi2sd %eax,%xmm0
    1971:	f2 0f 5e 05 df 07 00 	divsd  0x7df(%rip),%xmm0        # 2158 <_IO_stdin_used+0x158>
    1978:	00 
    1979:	f2 0f 11 43 f8       	movsd  %xmm0,-0x8(%rbx)
    197e:	4c 39 e3             	cmp    %r12,%rbx
    1981:	75 dd                	jne    1960 <_Z30microbenchmark_get_add_latencyv+0x20>
    1983:	45 31 c0             	xor    %r8d,%r8d
    1986:	44 89 c0             	mov    %r8d,%eax
    1989:	0f a2                	cpuid  
    198b:	0f 31                	rdtsc  
    198d:	48 c1 e2 20          	shl    $0x20,%rdx
    1991:	89 c6                	mov    %eax,%esi
    1993:	48 09 d6             	or     %rdx,%rsi
    1996:	0f 31                	rdtsc  
    1998:	48 c1 e2 20          	shl    $0x20,%rdx
    199c:	89 c7                	mov    %eax,%edi
    199e:	44 89 c0             	mov    %r8d,%eax
    19a1:	48 09 d7             	or     %rdx,%rdi
    19a4:	0f a2                	cpuid  
    19a6:	0f a2                	cpuid  
    19a8:	0f 31                	rdtsc  
    19aa:	48 c1 e2 20          	shl    $0x20,%rdx
    19ae:	41 89 c0             	mov    %eax,%r8d
    19b1:	66 0f ef c0          	pxor   %xmm0,%xmm0
    19b5:	49 09 d0             	or     %rdx,%r8
    19b8:	0f 1f 84 00 00 00 00 	nopl   0x0(%rax,%rax,1)
    19bf:	00 
    19c0:	f2 0f 58 45 00       	addsd  0x0(%rbp),%xmm0
    19c5:	48 83 c5 08          	add    $0x8,%rbp
    19c9:	4c 39 e5             	cmp    %r12,%rbp
    19cc:	75 f2                	jne    19c0 <_Z30microbenchmark_get_add_latencyv+0x80>
    19ce:	0f 31                	rdtsc  
    19d0:	48 c1 e2 20          	shl    $0x20,%rdx
    19d4:	89 c0                	mov    %eax,%eax
    19d6:	48 09 d0             	or     %rdx,%rax
    19d9:	49 89 c1             	mov    %rax,%r9
    19dc:	31 c0                	xor    %eax,%eax
    19de:	0f a2                	cpuid  
    19e0:	4a 8d 04 0e          	lea    (%rsi,%r9,1),%rax
    19e4:	f2 0f 11 05 3c 28 00 	movsd  %xmm0,0x283c(%rip)        # 4228 <res>
    19eb:	00 
    19ec:	4c 29 c0             	sub    %r8,%rax
    19ef:	48 29 f8             	sub    %rdi,%rax
    19f2:	78 16                	js     1a0a <_Z30microbenchmark_get_add_latencyv+0xca>
    19f4:	66 0f ef c0          	pxor   %xmm0,%xmm0
    19f8:	5b                   	pop    %rbx
    19f9:	5d                   	pop    %rbp
    19fa:	f2 48 0f 2a c0       	cvtsi2sd %rax,%xmm0
    19ff:	41 5c                	pop    %r12
    1a01:	f2 0f 5e 05 5f 07 00 	divsd  0x75f(%rip),%xmm0        # 2168 <_IO_stdin_used+0x168>
    1a08:	00 
    1a09:	c3                   	retq   
    1a0a:	48 89 c2             	mov    %rax,%rdx
    1a0d:	83 e0 01             	and    $0x1,%eax
    1a10:	66 0f ef c0          	pxor   %xmm0,%xmm0
    1a14:	5b                   	pop    %rbx
    1a15:	48 d1 ea             	shr    %rdx
    1a18:	5d                   	pop    %rbp
    1a19:	41 5c                	pop    %r12
    1a1b:	48 09 c2             	or     %rax,%rdx
    1a1e:	f2 48 0f 2a c2       	cvtsi2sd %rdx,%xmm0
    1a23:	f2 0f 58 c0          	addsd  %xmm0,%xmm0
    1a27:	f2 0f 5e 05 39 07 00 	divsd  0x739(%rip),%xmm0        # 2168 <_IO_stdin_used+0x168>
    1a2e:	00 
    1a2f:	c3                   	retq   

0000000000001a30 <_Z29microbenchmark_get_add_rec_tpv>:
    1a30:	f3 0f 1e fa          	endbr64 
    1a34:	41 54                	push   %r12
    1a36:	55                   	push   %rbp
    1a37:	48 8d 2d 82 4c f4 00 	lea    0xf44c82(%rip),%rbp        # f466c0 <arr>
    1a3e:	53                   	push   %rbx
    1a3f:	4c 8d a5 00 12 7a 00 	lea    0x7a1200(%rbp),%r12
    1a46:	48 89 eb             	mov    %rbp,%rbx
    1a49:	48 83 ec 10          	sub    $0x10,%rsp
    1a4d:	0f 1f 00             	nopl   (%rax)
    1a50:	e8 db f6 ff ff       	callq  1130 <rand@plt>
    1a55:	66 0f ef c0          	pxor   %xmm0,%xmm0
    1a59:	48 83 c3 08          	add    $0x8,%rbx
    1a5d:	f2 0f 2a c0          	cvtsi2sd %eax,%xmm0
    1a61:	f2 0f 5e 05 ef 06 00 	divsd  0x6ef(%rip),%xmm0        # 2158 <_IO_stdin_used+0x158>
    1a68:	00 
    1a69:	f2 0f 11 43 f8       	movsd  %xmm0,-0x8(%rbx)
    1a6e:	49 39 dc             	cmp    %rbx,%r12
    1a71:	75 dd                	jne    1a50 <_Z29microbenchmark_get_add_rec_tpv+0x20>
    1a73:	31 c0                	xor    %eax,%eax
    1a75:	0f a2                	cpuid  
    1a77:	0f 31                	rdtsc  
    1a79:	f2 0f 10 0d 97 27 00 	movsd  0x2797(%rip),%xmm1        # 4218 <t0>
    1a80:	00 
    1a81:	89 c6                	mov    %eax,%esi
    1a83:	48 c1 e2 20          	shl    $0x20,%rdx
    1a87:	f2 0f 10 3d 81 27 00 	movsd  0x2781(%rip),%xmm7        # 4210 <t1>
    1a8e:	00 
    1a8f:	f2 0f 10 35 71 27 00 	movsd  0x2771(%rip),%xmm6        # 4208 <t2>
    1a96:	00 
    1a97:	f2 0f 10 2d 61 27 00 	movsd  0x2761(%rip),%xmm5        # 4200 <t3>
    1a9e:	00 
    1a9f:	48 09 d6             	or     %rdx,%rsi
    1aa2:	48 8d 05 17 4c f4 00 	lea    0xf44c17(%rip),%rax        # f466c0 <arr>
    1aa9:	f2 0f 10 25 47 27 00 	movsd  0x2747(%rip),%xmm4        # 41f8 <t4>
    1ab0:	00 
    1ab1:	f2 0f 10 1d 37 27 00 	movsd  0x2737(%rip),%xmm3        # 41f0 <t5>
    1ab8:	00 
    1ab9:	f2 0f 10 15 27 27 00 	movsd  0x2727(%rip),%xmm2        # 41e8 <t6>
    1ac0:	00 
    1ac1:	f2 0f 10 05 17 27 00 	movsd  0x2717(%rip),%xmm0        # 41e0 <t7>
    1ac8:	00 
    1ac9:	0f 1f 80 00 00 00 00 	nopl   0x0(%rax)
    1ad0:	f2 0f 58 08          	addsd  (%rax),%xmm1
    1ad4:	f2 0f 58 78 08       	addsd  0x8(%rax),%xmm7
    1ad9:	48 83 c0 40          	add    $0x40,%rax
    1add:	f2 0f 58 70 d0       	addsd  -0x30(%rax),%xmm6
    1ae2:	f2 0f 58 68 d8       	addsd  -0x28(%rax),%xmm5
    1ae7:	f2 0f 58 60 e0       	addsd  -0x20(%rax),%xmm4
    1aec:	f2 0f 58 58 e8       	addsd  -0x18(%rax),%xmm3
    1af1:	f2 0f 58 50 f0       	addsd  -0x10(%rax),%xmm2
    1af6:	f2 0f 58 40 f8       	addsd  -0x8(%rax),%xmm0
    1afb:	49 39 c4             	cmp    %rax,%r12
    1afe:	75 d0                	jne    1ad0 <_Z29microbenchmark_get_add_rec_tpv+0xa0>
    1b00:	0f 31                	rdtsc  
    1b02:	48 c1 e2 20          	shl    $0x20,%rdx
    1b06:	89 c7                	mov    %eax,%edi
    1b08:	31 c0                	xor    %eax,%eax
    1b0a:	48 09 d7             	or     %rdx,%rdi
    1b0d:	0f a2                	cpuid  
    1b0f:	0f a2                	cpuid  
    1b11:	0f 31                	rdtsc  
    1b13:	66 44 0f 28 cf       	movapd %xmm7,%xmm9
    1b18:	66 0f 28 fd          	movapd %xmm5,%xmm7
    1b1c:	48 c1 e2 20          	shl    $0x20,%rdx
    1b20:	41 89 c0             	mov    %eax,%r8d
    1b23:	f2 0f 11 7c 24 08    	movsd  %xmm7,0x8(%rsp)
    1b29:	66 0f 28 eb          	movapd %xmm3,%xmm5
    1b2d:	49 09 d0             	or     %rdx,%r8
    1b30:	66 44 0f 28 c6       	movapd %xmm6,%xmm8
    1b35:	66 41 0f 28 f9       	movapd %xmm9,%xmm7
    1b3a:	66 0f 28 f4          	movapd %xmm4,%xmm6
    1b3e:	f2 0f 10 1d 92 26 00 	movsd  0x2692(%rip),%xmm3        # 41d8 <s0>
    1b45:	00 
    1b46:	66 0f 28 e2          	movapd %xmm2,%xmm4
    1b4a:	f2 44 0f 10 3d 75 26 	movsd  0x2675(%rip),%xmm15        # 41c8 <s2>
    1b51:	00 00 
    1b53:	f2 44 0f 10 4c 24 08 	movsd  0x8(%rsp),%xmm9
    1b5a:	f2 0f 10 15 6e 26 00 	movsd  0x266e(%rip),%xmm2        # 41d0 <s1>
    1b61:	00 
    1b62:	f2 44 0f 10 35 55 26 	movsd  0x2655(%rip),%xmm14        # 41c0 <s3>
    1b69:	00 00 
    1b6b:	f2 44 0f 10 2d 44 26 	movsd  0x2644(%rip),%xmm13        # 41b8 <s4>
    1b72:	00 00 
    1b74:	f2 44 0f 10 25 33 26 	movsd  0x2633(%rip),%xmm12        # 41b0 <s5>
    1b7b:	00 00 
    1b7d:	f2 44 0f 10 1d 22 26 	movsd  0x2622(%rip),%xmm11        # 41a8 <s6>
    1b84:	00 00 
    1b86:	f2 44 0f 10 15 11 26 	movsd  0x2611(%rip),%xmm10        # 41a0 <s7>
    1b8d:	00 00 
    1b8f:	90                   	nop
    1b90:	f2 0f 58 4d 00       	addsd  0x0(%rbp),%xmm1
    1b95:	f2 0f 58 7d 08       	addsd  0x8(%rbp),%xmm7
    1b9a:	48 83 c5 40          	add    $0x40,%rbp
    1b9e:	f2 44 0f 58 45 d0    	addsd  -0x30(%rbp),%xmm8
    1ba4:	f2 44 0f 58 4d d8    	addsd  -0x28(%rbp),%xmm9
    1baa:	f2 0f 58 75 e0       	addsd  -0x20(%rbp),%xmm6
    1baf:	f2 0f 58 6d e8       	addsd  -0x18(%rbp),%xmm5
    1bb4:	f2 0f 58 65 f0       	addsd  -0x10(%rbp),%xmm4
    1bb9:	f2 0f 58 45 f8       	addsd  -0x8(%rbp),%xmm0
    1bbe:	f2 0f 58 5d c0       	addsd  -0x40(%rbp),%xmm3
    1bc3:	f2 0f 58 55 c8       	addsd  -0x38(%rbp),%xmm2
    1bc8:	f2 44 0f 58 7d d0    	addsd  -0x30(%rbp),%xmm15
    1bce:	f2 44 0f 58 75 d8    	addsd  -0x28(%rbp),%xmm14
    1bd4:	f2 44 0f 58 6d e0    	addsd  -0x20(%rbp),%xmm13
    1bda:	f2 44 0f 58 65 e8    	addsd  -0x18(%rbp),%xmm12
    1be0:	f2 44 0f 58 5d f0    	addsd  -0x10(%rbp),%xmm11
    1be6:	f2 44 0f 58 55 f8    	addsd  -0x8(%rbp),%xmm10
    1bec:	49 39 ec             	cmp    %rbp,%r12
    1bef:	75 9f                	jne    1b90 <_Z29microbenchmark_get_add_rec_tpv+0x160>
    1bf1:	f2 44 0f 11 4c 24 08 	movsd  %xmm9,0x8(%rsp)
    1bf8:	66 44 0f 28 cf       	movapd %xmm7,%xmm9
    1bfd:	f2 0f 10 7c 24 08    	movsd  0x8(%rsp),%xmm7
    1c03:	f2 0f 11 0d 0d 26 00 	movsd  %xmm1,0x260d(%rip)        # 4218 <t0>
    1c0a:	00 
    1c0b:	f2 44 0f 11 0d fc 25 	movsd  %xmm9,0x25fc(%rip)        # 4210 <t1>
    1c12:	00 00 
    1c14:	f2 44 0f 11 05 eb 25 	movsd  %xmm8,0x25eb(%rip)        # 4208 <t2>
    1c1b:	00 00 
    1c1d:	f2 0f 11 3d db 25 00 	movsd  %xmm7,0x25db(%rip)        # 4200 <t3>
    1c24:	00 
    1c25:	f2 0f 11 35 cb 25 00 	movsd  %xmm6,0x25cb(%rip)        # 41f8 <t4>
    1c2c:	00 
    1c2d:	f2 0f 11 2d bb 25 00 	movsd  %xmm5,0x25bb(%rip)        # 41f0 <t5>
    1c34:	00 
    1c35:	f2 0f 11 25 ab 25 00 	movsd  %xmm4,0x25ab(%rip)        # 41e8 <t6>
    1c3c:	00 
    1c3d:	f2 0f 11 05 9b 25 00 	movsd  %xmm0,0x259b(%rip)        # 41e0 <t7>
    1c44:	00 
    1c45:	f2 0f 11 1d 8b 25 00 	movsd  %xmm3,0x258b(%rip)        # 41d8 <s0>
    1c4c:	00 
    1c4d:	f2 0f 11 15 7b 25 00 	movsd  %xmm2,0x257b(%rip)        # 41d0 <s1>
    1c54:	00 
    1c55:	f2 44 0f 11 3d 6a 25 	movsd  %xmm15,0x256a(%rip)        # 41c8 <s2>
    1c5c:	00 00 
    1c5e:	f2 44 0f 11 35 59 25 	movsd  %xmm14,0x2559(%rip)        # 41c0 <s3>
    1c65:	00 00 
    1c67:	f2 44 0f 11 2d 48 25 	movsd  %xmm13,0x2548(%rip)        # 41b8 <s4>
    1c6e:	00 00 
    1c70:	f2 44 0f 11 25 37 25 	movsd  %xmm12,0x2537(%rip)        # 41b0 <s5>
    1c77:	00 00 
    1c79:	f2 44 0f 11 1d 26 25 	movsd  %xmm11,0x2526(%rip)        # 41a8 <s6>
    1c80:	00 00 
    1c82:	f2 44 0f 11 15 15 25 	movsd  %xmm10,0x2515(%rip)        # 41a0 <s7>
    1c89:	00 00 
    1c8b:	0f 31                	rdtsc  
    1c8d:	48 c1 e2 20          	shl    $0x20,%rdx
    1c91:	89 c0                	mov    %eax,%eax
    1c93:	48 09 d0             	or     %rdx,%rax
    1c96:	49 89 c1             	mov    %rax,%r9
    1c99:	31 c0                	xor    %eax,%eax
    1c9b:	0f a2                	cpuid  
    1c9d:	4a 8d 04 0e          	lea    (%rsi,%r9,1),%rax
    1ca1:	4c 29 c0             	sub    %r8,%rax
    1ca4:	48 29 f8             	sub    %rdi,%rax
    1ca7:	78 1a                	js     1cc3 <_Z29microbenchmark_get_add_rec_tpv+0x293>
    1ca9:	66 0f ef c0          	pxor   %xmm0,%xmm0
    1cad:	f2 48 0f 2a c0       	cvtsi2sd %rax,%xmm0
    1cb2:	f2 0f 5e 05 ae 04 00 	divsd  0x4ae(%rip),%xmm0        # 2168 <_IO_stdin_used+0x168>
    1cb9:	00 
    1cba:	48 83 c4 10          	add    $0x10,%rsp
    1cbe:	5b                   	pop    %rbx
    1cbf:	5d                   	pop    %rbp
    1cc0:	41 5c                	pop    %r12
    1cc2:	c3                   	retq   
    1cc3:	48 89 c2             	mov    %rax,%rdx
    1cc6:	83 e0 01             	and    $0x1,%eax
    1cc9:	66 0f ef c0          	pxor   %xmm0,%xmm0
    1ccd:	48 d1 ea             	shr    %rdx
    1cd0:	48 09 c2             	or     %rax,%rdx
    1cd3:	f2 48 0f 2a c2       	cvtsi2sd %rdx,%xmm0
    1cd8:	f2 0f 58 c0          	addsd  %xmm0,%xmm0
    1cdc:	eb d4                	jmp    1cb2 <_Z29microbenchmark_get_add_rec_tpv+0x282>
    1cde:	66 90                	xchg   %ax,%ax

0000000000001ce0 <_Z30microbenchmark_get_sqt_latencyv>:
    1ce0:	f3 0f 1e fa          	endbr64 
    1ce4:	45 31 c0             	xor    %r8d,%r8d
    1ce7:	53                   	push   %rbx
    1ce8:	44 89 c0             	mov    %r8d,%eax
    1ceb:	0f a2                	cpuid  
    1ced:	0f 31                	rdtsc  
    1cef:	48 c1 e2 20          	shl    $0x20,%rdx
    1cf3:	89 c6                	mov    %eax,%esi
    1cf5:	48 09 d6             	or     %rdx,%rsi
    1cf8:	0f 31                	rdtsc  
    1cfa:	48 c1 e2 20          	shl    $0x20,%rdx
    1cfe:	89 c7                	mov    %eax,%edi
    1d00:	44 89 c0             	mov    %r8d,%eax
    1d03:	48 09 d7             	or     %rdx,%rdi
    1d06:	0f a2                	cpuid  
    1d08:	0f a2                	cpuid  
    1d0a:	0f 31                	rdtsc  
    1d0c:	f2 0f 10 05 ac 49 f4 	movsd  0xf449ac(%rip),%xmm0        # f466c0 <arr>
    1d13:	00 
    1d14:	48 c1 e2 20          	shl    $0x20,%rdx
    1d18:	41 89 c0             	mov    %eax,%r8d
    1d1b:	48 8d 05 a6 49 f4 00 	lea    0xf449a6(%rip),%rax        # f466c8 <arr+0x8>
    1d22:	49 09 d0             	or     %rdx,%r8
    1d25:	48 8d 90 00 12 7a 00 	lea    0x7a1200(%rax),%rdx
    1d2c:	0f 1f 40 00          	nopl   0x0(%rax)
    1d30:	f2 0f 51 c0          	sqrtsd %xmm0,%xmm0
    1d34:	48 83 c0 08          	add    $0x8,%rax
    1d38:	f2 0f 11 40 f8       	movsd  %xmm0,-0x8(%rax)
    1d3d:	48 39 d0             	cmp    %rdx,%rax
    1d40:	75 ee                	jne    1d30 <_Z30microbenchmark_get_sqt_latencyv+0x50>
    1d42:	0f 31                	rdtsc  
    1d44:	48 c1 e2 20          	shl    $0x20,%rdx
    1d48:	89 c0                	mov    %eax,%eax
    1d4a:	48 09 d0             	or     %rdx,%rax
    1d4d:	49 89 c1             	mov    %rax,%r9
    1d50:	31 c0                	xor    %eax,%eax
    1d52:	0f a2                	cpuid  
    1d54:	4a 8d 04 0e          	lea    (%rsi,%r9,1),%rax
    1d58:	4c 29 c0             	sub    %r8,%rax
    1d5b:	48 29 f8             	sub    %rdi,%rax
    1d5e:	78 13                	js     1d73 <_Z30microbenchmark_get_sqt_latencyv+0x93>
    1d60:	66 0f ef c0          	pxor   %xmm0,%xmm0
    1d64:	5b                   	pop    %rbx
    1d65:	f2 48 0f 2a c0       	cvtsi2sd %rax,%xmm0
    1d6a:	f2 0f 5e 05 f6 03 00 	divsd  0x3f6(%rip),%xmm0        # 2168 <_IO_stdin_used+0x168>
    1d71:	00 
    1d72:	c3                   	retq   
    1d73:	48 89 c2             	mov    %rax,%rdx
    1d76:	83 e0 01             	and    $0x1,%eax
    1d79:	66 0f ef c0          	pxor   %xmm0,%xmm0
    1d7d:	5b                   	pop    %rbx
    1d7e:	48 d1 ea             	shr    %rdx
    1d81:	48 09 c2             	or     %rax,%rdx
    1d84:	f2 48 0f 2a c2       	cvtsi2sd %rdx,%xmm0
    1d89:	f2 0f 58 c0          	addsd  %xmm0,%xmm0
    1d8d:	f2 0f 5e 05 d3 03 00 	divsd  0x3d3(%rip),%xmm0        # 2168 <_IO_stdin_used+0x168>
    1d94:	00 
    1d95:	c3                   	retq   
    1d96:	66 2e 0f 1f 84 00 00 	nopw   %cs:0x0(%rax,%rax,1)
    1d9d:	00 00 00 

0000000000001da0 <_Z29microbenchmark_get_sqt_rec_tpv>:
    1da0:	f3 0f 1e fa          	endbr64 
    1da4:	53                   	push   %rbx
    1da5:	31 c0                	xor    %eax,%eax
    1da7:	0f a2                	cpuid  
    1da9:	0f 31                	rdtsc  
    1dab:	48 8d 35 0e 49 f4 00 	lea    0xf4490e(%rip),%rsi        # f466c0 <arr>
    1db2:	48 c1 e2 20          	shl    $0x20,%rdx
    1db6:	41 89 c1             	mov    %eax,%r9d
    1db9:	49 09 d1             	or     %rdx,%r9
    1dbc:	48 8d be 00 12 7a 00 	lea    0x7a1200(%rsi),%rdi
    1dc3:	48 89 f0             	mov    %rsi,%rax
    1dc6:	48 8d 15 b3 36 7a 00 	lea    0x7a36b3(%rip),%rdx        # 7a5480 <arr_t>
    1dcd:	0f 1f 00             	nopl   (%rax)
    1dd0:	f2 0f 10 00          	movsd  (%rax),%xmm0
    1dd4:	48 83 c0 40          	add    $0x40,%rax
    1dd8:	48 83 c2 40          	add    $0x40,%rdx
    1ddc:	f2 0f 11 42 c0       	movsd  %xmm0,-0x40(%rdx)
    1de1:	f2 0f 10 40 c8       	movsd  -0x38(%rax),%xmm0
    1de6:	f2 0f 11 42 c8       	movsd  %xmm0,-0x38(%rdx)
    1deb:	f2 0f 10 40 d0       	movsd  -0x30(%rax),%xmm0
    1df0:	f2 0f 11 42 d0       	movsd  %xmm0,-0x30(%rdx)
    1df5:	f2 0f 10 40 d8       	movsd  -0x28(%rax),%xmm0
    1dfa:	f2 0f 11 42 d8       	movsd  %xmm0,-0x28(%rdx)
    1dff:	f2 0f 10 40 e0       	movsd  -0x20(%rax),%xmm0
    1e04:	f2 0f 11 42 e0       	movsd  %xmm0,-0x20(%rdx)
    1e09:	f2 0f 10 40 e8       	movsd  -0x18(%rax),%xmm0
    1e0e:	f2 0f 11 42 e8       	movsd  %xmm0,-0x18(%rdx)
    1e13:	f2 0f 10 40 f0       	movsd  -0x10(%rax),%xmm0
    1e18:	f2 0f 11 42 f0       	movsd  %xmm0,-0x10(%rdx)
    1e1d:	f2 0f 10 40 f8       	movsd  -0x8(%rax),%xmm0
    1e22:	f2 0f 11 42 f8       	movsd  %xmm0,-0x8(%rdx)
    1e27:	48 39 f8             	cmp    %rdi,%rax
    1e2a:	75 a4                	jne    1dd0 <_Z29microbenchmark_get_sqt_rec_tpv+0x30>
    1e2c:	0f 31                	rdtsc  
    1e2e:	48 c1 e2 20          	shl    $0x20,%rdx
    1e32:	41 89 c0             	mov    %eax,%r8d
    1e35:	31 c0                	xor    %eax,%eax
    1e37:	49 09 d0             	or     %rdx,%r8
    1e3a:	0f a2                	cpuid  
    1e3c:	4d 29 c8             	sub    %r9,%r8
    1e3f:	0f a2                	cpuid  
    1e41:	0f 31                	rdtsc  
    1e43:	48 8d 05 f6 23 00 00 	lea    0x23f6(%rip),%rax        # 4240 <arr_s>
    1e4a:	66 0f 1f 44 00 00    	nopw   0x0(%rax,%rax,1)
    1e50:	f2 0f 10 06          	movsd  (%rsi),%xmm0
    1e54:	48 83 c6 40          	add    $0x40,%rsi
    1e58:	48 83 c0 40          	add    $0x40,%rax
    1e5c:	f2 0f 51 c0          	sqrtsd %xmm0,%xmm0
    1e60:	f2 0f 11 40 c0       	movsd  %xmm0,-0x40(%rax)
    1e65:	f2 0f 10 46 c8       	movsd  -0x38(%rsi),%xmm0
    1e6a:	f2 0f 51 c0          	sqrtsd %xmm0,%xmm0
    1e6e:	f2 0f 11 40 c8       	movsd  %xmm0,-0x38(%rax)
    1e73:	f2 0f 10 46 d0       	movsd  -0x30(%rsi),%xmm0
    1e78:	f2 0f 51 c0          	sqrtsd %xmm0,%xmm0
    1e7c:	f2 0f 11 40 d0       	movsd  %xmm0,-0x30(%rax)
    1e81:	f2 0f 10 46 d8       	movsd  -0x28(%rsi),%xmm0
    1e86:	f2 0f 51 c0          	sqrtsd %xmm0,%xmm0
    1e8a:	f2 0f 11 40 d8       	movsd  %xmm0,-0x28(%rax)
    1e8f:	f2 0f 10 46 e0       	movsd  -0x20(%rsi),%xmm0
    1e94:	f2 0f 51 c0          	sqrtsd %xmm0,%xmm0
    1e98:	f2 0f 11 40 e0       	movsd  %xmm0,-0x20(%rax)
    1e9d:	f2 0f 10 46 e8       	movsd  -0x18(%rsi),%xmm0
    1ea2:	f2 0f 51 c0          	sqrtsd %xmm0,%xmm0
    1ea6:	f2 0f 11 40 e8       	movsd  %xmm0,-0x18(%rax)
    1eab:	f2 0f 10 46 f0       	movsd  -0x10(%rsi),%xmm0
    1eb0:	f2 0f 51 c0          	sqrtsd %xmm0,%xmm0
    1eb4:	f2 0f 11 40 f0       	movsd  %xmm0,-0x10(%rax)
    1eb9:	f2 0f 10 46 f8       	movsd  -0x8(%rsi),%xmm0
    1ebe:	f2 0f 51 c0          	sqrtsd %xmm0,%xmm0
    1ec2:	f2 0f 11 40 f8       	movsd  %xmm0,-0x8(%rax)
    1ec7:	48 39 f7             	cmp    %rsi,%rdi
    1eca:	75 84                	jne    1e50 <_Z29microbenchmark_get_sqt_rec_tpv+0xb0>
    1ecc:	0f 31                	rdtsc  
    1ece:	31 c0                	xor    %eax,%eax
    1ed0:	0f a2                	cpuid  
    1ed2:	4d 85 c0             	test   %r8,%r8
    1ed5:	78 13                	js     1eea <_Z29microbenchmark_get_sqt_rec_tpv+0x14a>
    1ed7:	66 0f ef c0          	pxor   %xmm0,%xmm0
    1edb:	5b                   	pop    %rbx
    1edc:	f2 49 0f 2a c0       	cvtsi2sd %r8,%xmm0
    1ee1:	f2 0f 5e 05 7f 02 00 	divsd  0x27f(%rip),%xmm0        # 2168 <_IO_stdin_used+0x168>
    1ee8:	00 
    1ee9:	c3                   	retq   
    1eea:	4c 89 c0             	mov    %r8,%rax
    1eed:	41 83 e0 01          	and    $0x1,%r8d
    1ef1:	66 0f ef c0          	pxor   %xmm0,%xmm0
    1ef5:	5b                   	pop    %rbx
    1ef6:	48 d1 e8             	shr    %rax
    1ef9:	4c 09 c0             	or     %r8,%rax
    1efc:	f2 48 0f 2a c0       	cvtsi2sd %rax,%xmm0
    1f01:	f2 0f 58 c0          	addsd  %xmm0,%xmm0
    1f05:	f2 0f 5e 05 5b 02 00 	divsd  0x25b(%rip),%xmm0        # 2168 <_IO_stdin_used+0x168>
    1f0c:	00 
    1f0d:	c3                   	retq   
    1f0e:	66 90                	xchg   %ax,%ax

0000000000001f10 <_Z30microbenchmark_get_foo_latencyv>:
    1f10:	f3 0f 1e fa          	endbr64 
    1f14:	66 0f ef c0          	pxor   %xmm0,%xmm0
    1f18:	c3                   	retq   
    1f19:	0f 1f 80 00 00 00 00 	nopl   0x0(%rax)

0000000000001f20 <_Z29microbenchmark_get_foo_rec_tpv>:
    1f20:	f3 0f 1e fa          	endbr64 
    1f24:	66 0f ef c0          	pxor   %xmm0,%xmm0
    1f28:	c3                   	retq   
    1f29:	0f 1f 80 00 00 00 00 	nopl   0x0(%rax)

0000000000001f30 <__libc_csu_init>:
    1f30:	f3 0f 1e fa          	endbr64 
    1f34:	41 57                	push   %r15
    1f36:	4c 8d 3d e3 1d 00 00 	lea    0x1de3(%rip),%r15        # 3d20 <__frame_dummy_init_array_entry>
    1f3d:	41 56                	push   %r14
    1f3f:	49 89 d6             	mov    %rdx,%r14
    1f42:	41 55                	push   %r13
    1f44:	49 89 f5             	mov    %rsi,%r13
    1f47:	41 54                	push   %r12
    1f49:	41 89 fc             	mov    %edi,%r12d
    1f4c:	55                   	push   %rbp
    1f4d:	48 8d 2d dc 1d 00 00 	lea    0x1ddc(%rip),%rbp        # 3d30 <__do_global_dtors_aux_fini_array_entry>
    1f54:	53                   	push   %rbx
    1f55:	4c 29 fd             	sub    %r15,%rbp
    1f58:	48 83 ec 08          	sub    $0x8,%rsp
    1f5c:	e8 9f f0 ff ff       	callq  1000 <_init>
    1f61:	48 c1 fd 03          	sar    $0x3,%rbp
    1f65:	74 1f                	je     1f86 <__libc_csu_init+0x56>
    1f67:	31 db                	xor    %ebx,%ebx
    1f69:	0f 1f 80 00 00 00 00 	nopl   0x0(%rax)
    1f70:	4c 89 f2             	mov    %r14,%rdx
    1f73:	4c 89 ee             	mov    %r13,%rsi
    1f76:	44 89 e7             	mov    %r12d,%edi
    1f79:	41 ff 14 df          	callq  *(%r15,%rbx,8)
    1f7d:	48 83 c3 01          	add    $0x1,%rbx
    1f81:	48 39 dd             	cmp    %rbx,%rbp
    1f84:	75 ea                	jne    1f70 <__libc_csu_init+0x40>
    1f86:	48 83 c4 08          	add    $0x8,%rsp
    1f8a:	5b                   	pop    %rbx
    1f8b:	5d                   	pop    %rbp
    1f8c:	41 5c                	pop    %r12
    1f8e:	41 5d                	pop    %r13
    1f90:	41 5e                	pop    %r14
    1f92:	41 5f                	pop    %r15
    1f94:	c3                   	retq   
    1f95:	66 66 2e 0f 1f 84 00 	data16 nopw %cs:0x0(%rax,%rax,1)
    1f9c:	00 00 00 00 

0000000000001fa0 <__libc_csu_fini>:
    1fa0:	f3 0f 1e fa          	endbr64 
    1fa4:	c3                   	retq   

Disassembly of section .fini:

0000000000001fa8 <_fini>:
    1fa8:	f3 0f 1e fa          	endbr64 
    1fac:	48 83 ec 08          	sub    $0x8,%rsp
    1fb0:	48 83 c4 08          	add    $0x8,%rsp
    1fb4:	c3                   	retq   
